

Microchip MPLAB XC8 Assembler V2.10 build 88905656 
                                                                                               Thu Dec 12 17:03:39 2019

Microchip MPLAB XC8 C Compiler v2.10 (Free license) build 20190730164152 Og1 
     1                           	processor	16F1825
     2                           	opt	pw 120
     3                           	opt	flic
     4                           	psect	stringtext1,global,class=STRCODE,delta=2
     5                           	psect	stringtext2,global,class=STRCODE,delta=2
     6                           	psect	cinit,global,class=CODE,merge=1,delta=2
     7                           	psect	bssBANK0,global,class=BANK0,space=1,delta=1
     8                           	psect	cstackCOMMON,global,class=COMMON,space=1,delta=1
     9                           	psect	cstackBANK0,global,class=BANK0,space=1,delta=1
    10                           	psect	maintext,global,class=CODE,merge=1,split=1,delta=2
    11                           	psect	text1,local,class=CODE,merge=1,delta=2
    12                           	psect	text2,local,class=CODE,merge=1,delta=2
    13                           	psect	text3,local,class=CODE,merge=1,delta=2
    14                           	psect	text4,local,class=CODE,merge=1,delta=2
    15                           	psect	text5,local,class=CODE,merge=1,delta=2
    16                           	psect	text6,local,class=CODE,merge=1,delta=2
    17                           	psect	text7,local,class=CODE,merge=1,delta=2,group=1
    18                           	psect	text8,local,class=CODE,merge=1,delta=2
    19                           	psect	text9,local,class=CODE,merge=1,delta=2
    20                           	psect	text10,local,class=CODE,merge=1,delta=2
    21                           	psect	text11,local,class=CODE,merge=1,delta=2
    22                           	psect	text12,local,class=CODE,merge=1,delta=2
    23                           	psect	text13,local,class=CODE,merge=1,delta=2
    24                           	psect	text14,local,class=CODE,merge=1,delta=2
    25                           	psect	text15,local,class=CODE,merge=1,delta=2
    26                           	psect	text16,local,class=CODE,merge=1,delta=2
    27                           	psect	intentry,global,class=CODE,delta=2
    28                           	dabs	1,0x7E,2
    29  0000                     
    30                           ; Version 2.10
    31                           ; Generated 31/07/2019 GMT
    32                           ; 
    33                           ; Copyright © 2019, Microchip Technology Inc. and its subsidiaries ("Microchip")
    34                           ; All rights reserved.
    35                           ; 
    36                           ; This software is developed by Microchip Technology Inc. and its subsidiaries ("Microch
      +                          ip").
    37                           ; 
    38                           ; Redistribution and use in source and binary forms, with or without modification, are
    39                           ; permitted provided that the following conditions are met:
    40                           ; 
    41                           ;     1. Redistributions of source code must retain the above copyright notice, this lis
      +                          t of
    42                           ;        conditions and the following disclaimer.
    43                           ; 
    44                           ;     2. Redistributions in binary form must reproduce the above copyright notice, this 
      +                          list
    45                           ;        of conditions and the following disclaimer in the documentation and/or other
    46                           ;        materials provided with the distribution.
    47                           ; 
    48                           ;     3. Microchip's name may not be used to endorse or promote products derived from th
      +                          is
    49                           ;        software without specific prior written permission.
    50                           ; 
    51                           ; THIS SOFTWARE IS PROVIDED BY MICROCHIP "AS IS" AND ANY EXPRESS OR IMPLIED WARRANTIES,
    52                           ; INCLUDING, BUT NOT LIMITED TO, THE IMPLIED WARRANTIES OF MERCHANTABILITY AND FITNESS F
      +                          OR
    53                           ; PURPOSE ARE DISCLAIMED.  IN NO EVENT SHALL MICROCHIP BE LIABLE FOR ANY DIRECT, INDIREC
      +                          T,
    54                           ; INCIDENTAL, SPECIAL, EXEMPLARY, OR CONSEQUENTIAL DAMAGES (INCLUDING BUT NOT LIMITED TO
    55                           ; PROCUREMENT OF SUBSTITUTE GOODS OR SERVICES; LOSS OF USE, DATA OR PROFITS; OR BUSINESS
    56                           ; INTERRUPTION) HOWSOEVER CAUSED AND ON ANY THEORY OF LIABILITY, WHETHER IN CONTRACT, ST
      +                          RICT
    57                           ; LIABILITY, OR TORT (INCLUDING NEGLIGENCE OR OTHERWISE) ARISING IN ANY WAY OUT OF THE U
      +                          SE OF
    58                           ; THIS SOFTWARE, EVEN IF ADVISED OF THE POSSIBILITY OF SUCH DAMAGE.
    59                           ; 
    60                           ; 
    61                           ; Code-generator required, PIC16F1825 Definitions
    62                           ; 
    63                           ; SFR Addresses
    64  0000                     	;# 
    65  0001                     	;# 
    66  0002                     	;# 
    67  0003                     	;# 
    68  0004                     	;# 
    69  0005                     	;# 
    70  0006                     	;# 
    71  0007                     	;# 
    72  0008                     	;# 
    73  0009                     	;# 
    74  000A                     	;# 
    75  000B                     	;# 
    76  000C                     	;# 
    77  000E                     	;# 
    78  0011                     	;# 
    79  0012                     	;# 
    80  0013                     	;# 
    81  0015                     	;# 
    82  0016                     	;# 
    83  0016                     	;# 
    84  0017                     	;# 
    85  0018                     	;# 
    86  0019                     	;# 
    87  001A                     	;# 
    88  001B                     	;# 
    89  001C                     	;# 
    90  001E                     	;# 
    91  001F                     	;# 
    92  008C                     	;# 
    93  008E                     	;# 
    94  0091                     	;# 
    95  0092                     	;# 
    96  0093                     	;# 
    97  0095                     	;# 
    98  0096                     	;# 
    99  0097                     	;# 
   100  0098                     	;# 
   101  0099                     	;# 
   102  009A                     	;# 
   103  009B                     	;# 
   104  009B                     	;# 
   105  009C                     	;# 
   106  009D                     	;# 
   107  009E                     	;# 
   108  010C                     	;# 
   109  010E                     	;# 
   110  0111                     	;# 
   111  0112                     	;# 
   112  0113                     	;# 
   113  0114                     	;# 
   114  0115                     	;# 
   115  0116                     	;# 
   116  0117                     	;# 
   117  0118                     	;# 
   118  0119                     	;# 
   119  011A                     	;# 
   120  011B                     	;# 
   121  011D                     	;# 
   122  011E                     	;# 
   123  018C                     	;# 
   124  018E                     	;# 
   125  0191                     	;# 
   126  0191                     	;# 
   127  0192                     	;# 
   128  0193                     	;# 
   129  0193                     	;# 
   130  0193                     	;# 
   131  0194                     	;# 
   132  0195                     	;# 
   133  0196                     	;# 
   134  0199                     	;# 
   135  019A                     	;# 
   136  019B                     	;# 
   137  019B                     	;# 
   138  019C                     	;# 
   139  019D                     	;# 
   140  019E                     	;# 
   141  019F                     	;# 
   142  020C                     	;# 
   143  020E                     	;# 
   144  0211                     	;# 
   145  0211                     	;# 
   146  0212                     	;# 
   147  0212                     	;# 
   148  0213                     	;# 
   149  0213                     	;# 
   150  0214                     	;# 
   151  0214                     	;# 
   152  0215                     	;# 
   153  0215                     	;# 
   154  0215                     	;# 
   155  0216                     	;# 
   156  0216                     	;# 
   157  0217                     	;# 
   158  0217                     	;# 
   159  0291                     	;# 
   160  0291                     	;# 
   161  0292                     	;# 
   162  0293                     	;# 
   163  0294                     	;# 
   164  0295                     	;# 
   165  0295                     	;# 
   166  0296                     	;# 
   167  0298                     	;# 
   168  0298                     	;# 
   169  0299                     	;# 
   170  029A                     	;# 
   171  029B                     	;# 
   172  029C                     	;# 
   173  029D                     	;# 
   174  029E                     	;# 
   175  0311                     	;# 
   176  0311                     	;# 
   177  0312                     	;# 
   178  0313                     	;# 
   179  0318                     	;# 
   180  0318                     	;# 
   181  0319                     	;# 
   182  031A                     	;# 
   183  038C                     	;# 
   184  038E                     	;# 
   185  0391                     	;# 
   186  0392                     	;# 
   187  0393                     	;# 
   188  039A                     	;# 
   189  039C                     	;# 
   190  039D                     	;# 
   191  039E                     	;# 
   192  039F                     	;# 
   193  0415                     	;# 
   194  0416                     	;# 
   195  0417                     	;# 
   196  041C                     	;# 
   197  041D                     	;# 
   198  041E                     	;# 
   199  0FE4                     	;# 
   200  0FE5                     	;# 
   201  0FE6                     	;# 
   202  0FE7                     	;# 
   203  0FE8                     	;# 
   204  0FE9                     	;# 
   205  0FEA                     	;# 
   206  0FEB                     	;# 
   207  0FED                     	;# 
   208  0FEE                     	;# 
   209  0FEF                     	;# 
   210  0000                     	;# 
   211  0001                     	;# 
   212  0002                     	;# 
   213  0003                     	;# 
   214  0004                     	;# 
   215  0005                     	;# 
   216  0006                     	;# 
   217  0007                     	;# 
   218  0008                     	;# 
   219  0009                     	;# 
   220  000A                     	;# 
   221  000B                     	;# 
   222  000C                     	;# 
   223  000E                     	;# 
   224  0011                     	;# 
   225  0012                     	;# 
   226  0013                     	;# 
   227  0015                     	;# 
   228  0016                     	;# 
   229  0016                     	;# 
   230  0017                     	;# 
   231  0018                     	;# 
   232  0019                     	;# 
   233  001A                     	;# 
   234  001B                     	;# 
   235  001C                     	;# 
   236  001E                     	;# 
   237  001F                     	;# 
   238  008C                     	;# 
   239  008E                     	;# 
   240  0091                     	;# 
   241  0092                     	;# 
   242  0093                     	;# 
   243  0095                     	;# 
   244  0096                     	;# 
   245  0097                     	;# 
   246  0098                     	;# 
   247  0099                     	;# 
   248  009A                     	;# 
   249  009B                     	;# 
   250  009B                     	;# 
   251  009C                     	;# 
   252  009D                     	;# 
   253  009E                     	;# 
   254  010C                     	;# 
   255  010E                     	;# 
   256  0111                     	;# 
   257  0112                     	;# 
   258  0113                     	;# 
   259  0114                     	;# 
   260  0115                     	;# 
   261  0116                     	;# 
   262  0117                     	;# 
   263  0118                     	;# 
   264  0119                     	;# 
   265  011A                     	;# 
   266  011B                     	;# 
   267  011D                     	;# 
   268  011E                     	;# 
   269  018C                     	;# 
   270  018E                     	;# 
   271  0191                     	;# 
   272  0191                     	;# 
   273  0192                     	;# 
   274  0193                     	;# 
   275  0193                     	;# 
   276  0193                     	;# 
   277  0194                     	;# 
   278  0195                     	;# 
   279  0196                     	;# 
   280  0199                     	;# 
   281  019A                     	;# 
   282  019B                     	;# 
   283  019B                     	;# 
   284  019C                     	;# 
   285  019D                     	;# 
   286  019E                     	;# 
   287  019F                     	;# 
   288  020C                     	;# 
   289  020E                     	;# 
   290  0211                     	;# 
   291  0211                     	;# 
   292  0212                     	;# 
   293  0212                     	;# 
   294  0213                     	;# 
   295  0213                     	;# 
   296  0214                     	;# 
   297  0214                     	;# 
   298  0215                     	;# 
   299  0215                     	;# 
   300  0215                     	;# 
   301  0216                     	;# 
   302  0216                     	;# 
   303  0217                     	;# 
   304  0217                     	;# 
   305  0291                     	;# 
   306  0291                     	;# 
   307  0292                     	;# 
   308  0293                     	;# 
   309  0294                     	;# 
   310  0295                     	;# 
   311  0295                     	;# 
   312  0296                     	;# 
   313  0298                     	;# 
   314  0298                     	;# 
   315  0299                     	;# 
   316  029A                     	;# 
   317  029B                     	;# 
   318  029C                     	;# 
   319  029D                     	;# 
   320  029E                     	;# 
   321  0311                     	;# 
   322  0311                     	;# 
   323  0312                     	;# 
   324  0313                     	;# 
   325  0318                     	;# 
   326  0318                     	;# 
   327  0319                     	;# 
   328  031A                     	;# 
   329  038C                     	;# 
   330  038E                     	;# 
   331  0391                     	;# 
   332  0392                     	;# 
   333  0393                     	;# 
   334  039A                     	;# 
   335  039C                     	;# 
   336  039D                     	;# 
   337  039E                     	;# 
   338  039F                     	;# 
   339  0415                     	;# 
   340  0416                     	;# 
   341  0417                     	;# 
   342  041C                     	;# 
   343  041D                     	;# 
   344  041E                     	;# 
   345  0FE4                     	;# 
   346  0FE5                     	;# 
   347  0FE6                     	;# 
   348  0FE7                     	;# 
   349  0FE8                     	;# 
   350  0FE9                     	;# 
   351  0FEA                     	;# 
   352  0FEB                     	;# 
   353  0FED                     	;# 
   354  0FEE                     	;# 
   355  0FEF                     	;# 
   356  0000                     	;# 
   357  0001                     	;# 
   358  0002                     	;# 
   359  0003                     	;# 
   360  0004                     	;# 
   361  0005                     	;# 
   362  0006                     	;# 
   363  0007                     	;# 
   364  0008                     	;# 
   365  0009                     	;# 
   366  000A                     	;# 
   367  000B                     	;# 
   368  000C                     	;# 
   369  000E                     	;# 
   370  0011                     	;# 
   371  0012                     	;# 
   372  0013                     	;# 
   373  0015                     	;# 
   374  0016                     	;# 
   375  0016                     	;# 
   376  0017                     	;# 
   377  0018                     	;# 
   378  0019                     	;# 
   379  001A                     	;# 
   380  001B                     	;# 
   381  001C                     	;# 
   382  001E                     	;# 
   383  001F                     	;# 
   384  008C                     	;# 
   385  008E                     	;# 
   386  0091                     	;# 
   387  0092                     	;# 
   388  0093                     	;# 
   389  0095                     	;# 
   390  0096                     	;# 
   391  0097                     	;# 
   392  0098                     	;# 
   393  0099                     	;# 
   394  009A                     	;# 
   395  009B                     	;# 
   396  009B                     	;# 
   397  009C                     	;# 
   398  009D                     	;# 
   399  009E                     	;# 
   400  010C                     	;# 
   401  010E                     	;# 
   402  0111                     	;# 
   403  0112                     	;# 
   404  0113                     	;# 
   405  0114                     	;# 
   406  0115                     	;# 
   407  0116                     	;# 
   408  0117                     	;# 
   409  0118                     	;# 
   410  0119                     	;# 
   411  011A                     	;# 
   412  011B                     	;# 
   413  011D                     	;# 
   414  011E                     	;# 
   415  018C                     	;# 
   416  018E                     	;# 
   417  0191                     	;# 
   418  0191                     	;# 
   419  0192                     	;# 
   420  0193                     	;# 
   421  0193                     	;# 
   422  0193                     	;# 
   423  0194                     	;# 
   424  0195                     	;# 
   425  0196                     	;# 
   426  0199                     	;# 
   427  019A                     	;# 
   428  019B                     	;# 
   429  019B                     	;# 
   430  019C                     	;# 
   431  019D                     	;# 
   432  019E                     	;# 
   433  019F                     	;# 
   434  020C                     	;# 
   435  020E                     	;# 
   436  0211                     	;# 
   437  0211                     	;# 
   438  0212                     	;# 
   439  0212                     	;# 
   440  0213                     	;# 
   441  0213                     	;# 
   442  0214                     	;# 
   443  0214                     	;# 
   444  0215                     	;# 
   445  0215                     	;# 
   446  0215                     	;# 
   447  0216                     	;# 
   448  0216                     	;# 
   449  0217                     	;# 
   450  0217                     	;# 
   451  0291                     	;# 
   452  0291                     	;# 
   453  0292                     	;# 
   454  0293                     	;# 
   455  0294                     	;# 
   456  0295                     	;# 
   457  0295                     	;# 
   458  0296                     	;# 
   459  0298                     	;# 
   460  0298                     	;# 
   461  0299                     	;# 
   462  029A                     	;# 
   463  029B                     	;# 
   464  029C                     	;# 
   465  029D                     	;# 
   466  029E                     	;# 
   467  0311                     	;# 
   468  0311                     	;# 
   469  0312                     	;# 
   470  0313                     	;# 
   471  0318                     	;# 
   472  0318                     	;# 
   473  0319                     	;# 
   474  031A                     	;# 
   475  038C                     	;# 
   476  038E                     	;# 
   477  0391                     	;# 
   478  0392                     	;# 
   479  0393                     	;# 
   480  039A                     	;# 
   481  039C                     	;# 
   482  039D                     	;# 
   483  039E                     	;# 
   484  039F                     	;# 
   485  0415                     	;# 
   486  0416                     	;# 
   487  0417                     	;# 
   488  041C                     	;# 
   489  041D                     	;# 
   490  041E                     	;# 
   491  0FE4                     	;# 
   492  0FE5                     	;# 
   493  0FE6                     	;# 
   494  0FE7                     	;# 
   495  0FE8                     	;# 
   496  0FE9                     	;# 
   497  0FEA                     	;# 
   498  0FEB                     	;# 
   499  0FED                     	;# 
   500  0FEE                     	;# 
   501  0FEF                     	;# 
   502  0000                     	;# 
   503  0001                     	;# 
   504  0002                     	;# 
   505  0003                     	;# 
   506  0004                     	;# 
   507  0005                     	;# 
   508  0006                     	;# 
   509  0007                     	;# 
   510  0008                     	;# 
   511  0009                     	;# 
   512  000A                     	;# 
   513  000B                     	;# 
   514  000C                     	;# 
   515  000E                     	;# 
   516  0011                     	;# 
   517  0012                     	;# 
   518  0013                     	;# 
   519  0015                     	;# 
   520  0016                     	;# 
   521  0016                     	;# 
   522  0017                     	;# 
   523  0018                     	;# 
   524  0019                     	;# 
   525  001A                     	;# 
   526  001B                     	;# 
   527  001C                     	;# 
   528  001E                     	;# 
   529  001F                     	;# 
   530  008C                     	;# 
   531  008E                     	;# 
   532  0091                     	;# 
   533  0092                     	;# 
   534  0093                     	;# 
   535  0095                     	;# 
   536  0096                     	;# 
   537  0097                     	;# 
   538  0098                     	;# 
   539  0099                     	;# 
   540  009A                     	;# 
   541  009B                     	;# 
   542  009B                     	;# 
   543  009C                     	;# 
   544  009D                     	;# 
   545  009E                     	;# 
   546  010C                     	;# 
   547  010E                     	;# 
   548  0111                     	;# 
   549  0112                     	;# 
   550  0113                     	;# 
   551  0114                     	;# 
   552  0115                     	;# 
   553  0116                     	;# 
   554  0117                     	;# 
   555  0118                     	;# 
   556  0119                     	;# 
   557  011A                     	;# 
   558  011B                     	;# 
   559  011D                     	;# 
   560  011E                     	;# 
   561  018C                     	;# 
   562  018E                     	;# 
   563  0191                     	;# 
   564  0191                     	;# 
   565  0192                     	;# 
   566  0193                     	;# 
   567  0193                     	;# 
   568  0193                     	;# 
   569  0194                     	;# 
   570  0195                     	;# 
   571  0196                     	;# 
   572  0199                     	;# 
   573  019A                     	;# 
   574  019B                     	;# 
   575  019B                     	;# 
   576  019C                     	;# 
   577  019D                     	;# 
   578  019E                     	;# 
   579  019F                     	;# 
   580  020C                     	;# 
   581  020E                     	;# 
   582  0211                     	;# 
   583  0211                     	;# 
   584  0212                     	;# 
   585  0212                     	;# 
   586  0213                     	;# 
   587  0213                     	;# 
   588  0214                     	;# 
   589  0214                     	;# 
   590  0215                     	;# 
   591  0215                     	;# 
   592  0215                     	;# 
   593  0216                     	;# 
   594  0216                     	;# 
   595  0217                     	;# 
   596  0217                     	;# 
   597  0291                     	;# 
   598  0291                     	;# 
   599  0292                     	;# 
   600  0293                     	;# 
   601  0294                     	;# 
   602  0295                     	;# 
   603  0295                     	;# 
   604  0296                     	;# 
   605  0298                     	;# 
   606  0298                     	;# 
   607  0299                     	;# 
   608  029A                     	;# 
   609  029B                     	;# 
   610  029C                     	;# 
   611  029D                     	;# 
   612  029E                     	;# 
   613  0311                     	;# 
   614  0311                     	;# 
   615  0312                     	;# 
   616  0313                     	;# 
   617  0318                     	;# 
   618  0318                     	;# 
   619  0319                     	;# 
   620  031A                     	;# 
   621  038C                     	;# 
   622  038E                     	;# 
   623  0391                     	;# 
   624  0392                     	;# 
   625  0393                     	;# 
   626  039A                     	;# 
   627  039C                     	;# 
   628  039D                     	;# 
   629  039E                     	;# 
   630  039F                     	;# 
   631  0415                     	;# 
   632  0416                     	;# 
   633  0417                     	;# 
   634  041C                     	;# 
   635  041D                     	;# 
   636  041E                     	;# 
   637  0FE4                     	;# 
   638  0FE5                     	;# 
   639  0FE6                     	;# 
   640  0FE7                     	;# 
   641  0FE8                     	;# 
   642  0FE9                     	;# 
   643  0FEA                     	;# 
   644  0FEB                     	;# 
   645  0FED                     	;# 
   646  0FEE                     	;# 
   647  0FEF                     	;# 
   648  0000                     	;# 
   649  0001                     	;# 
   650  0002                     	;# 
   651  0003                     	;# 
   652  0004                     	;# 
   653  0005                     	;# 
   654  0006                     	;# 
   655  0007                     	;# 
   656  0008                     	;# 
   657  0009                     	;# 
   658  000A                     	;# 
   659  000B                     	;# 
   660  000C                     	;# 
   661  000E                     	;# 
   662  0011                     	;# 
   663  0012                     	;# 
   664  0013                     	;# 
   665  0015                     	;# 
   666  0016                     	;# 
   667  0016                     	;# 
   668  0017                     	;# 
   669  0018                     	;# 
   670  0019                     	;# 
   671  001A                     	;# 
   672  001B                     	;# 
   673  001C                     	;# 
   674  001E                     	;# 
   675  001F                     	;# 
   676  008C                     	;# 
   677  008E                     	;# 
   678  0091                     	;# 
   679  0092                     	;# 
   680  0093                     	;# 
   681  0095                     	;# 
   682  0096                     	;# 
   683  0097                     	;# 
   684  0098                     	;# 
   685  0099                     	;# 
   686  009A                     	;# 
   687  009B                     	;# 
   688  009B                     	;# 
   689  009C                     	;# 
   690  009D                     	;# 
   691  009E                     	;# 
   692  010C                     	;# 
   693  010E                     	;# 
   694  0111                     	;# 
   695  0112                     	;# 
   696  0113                     	;# 
   697  0114                     	;# 
   698  0115                     	;# 
   699  0116                     	;# 
   700  0117                     	;# 
   701  0118                     	;# 
   702  0119                     	;# 
   703  011A                     	;# 
   704  011B                     	;# 
   705  011D                     	;# 
   706  011E                     	;# 
   707  018C                     	;# 
   708  018E                     	;# 
   709  0191                     	;# 
   710  0191                     	;# 
   711  0192                     	;# 
   712  0193                     	;# 
   713  0193                     	;# 
   714  0193                     	;# 
   715  0194                     	;# 
   716  0195                     	;# 
   717  0196                     	;# 
   718  0199                     	;# 
   719  019A                     	;# 
   720  019B                     	;# 
   721  019B                     	;# 
   722  019C                     	;# 
   723  019D                     	;# 
   724  019E                     	;# 
   725  019F                     	;# 
   726  020C                     	;# 
   727  020E                     	;# 
   728  0211                     	;# 
   729  0211                     	;# 
   730  0212                     	;# 
   731  0212                     	;# 
   732  0213                     	;# 
   733  0213                     	;# 
   734  0214                     	;# 
   735  0214                     	;# 
   736  0215                     	;# 
   737  0215                     	;# 
   738  0215                     	;# 
   739  0216                     	;# 
   740  0216                     	;# 
   741  0217                     	;# 
   742  0217                     	;# 
   743  0291                     	;# 
   744  0291                     	;# 
   745  0292                     	;# 
   746  0293                     	;# 
   747  0294                     	;# 
   748  0295                     	;# 
   749  0295                     	;# 
   750  0296                     	;# 
   751  0298                     	;# 
   752  0298                     	;# 
   753  0299                     	;# 
   754  029A                     	;# 
   755  029B                     	;# 
   756  029C                     	;# 
   757  029D                     	;# 
   758  029E                     	;# 
   759  0311                     	;# 
   760  0311                     	;# 
   761  0312                     	;# 
   762  0313                     	;# 
   763  0318                     	;# 
   764  0318                     	;# 
   765  0319                     	;# 
   766  031A                     	;# 
   767  038C                     	;# 
   768  038E                     	;# 
   769  0391                     	;# 
   770  0392                     	;# 
   771  0393                     	;# 
   772  039A                     	;# 
   773  039C                     	;# 
   774  039D                     	;# 
   775  039E                     	;# 
   776  039F                     	;# 
   777  0415                     	;# 
   778  0416                     	;# 
   779  0417                     	;# 
   780  041C                     	;# 
   781  041D                     	;# 
   782  041E                     	;# 
   783  0FE4                     	;# 
   784  0FE5                     	;# 
   785  0FE6                     	;# 
   786  0FE7                     	;# 
   787  0FE8                     	;# 
   788  0FE9                     	;# 
   789  0FEA                     	;# 
   790  0FEB                     	;# 
   791  0FED                     	;# 
   792  0FEE                     	;# 
   793  0FEF                     	;# 
   794                           
   795                           	psect	stringtext1
   796  0010                     __pstringtext1:	
   797  0010                     loop@image:	
   798  0010  34FF               	retlw	255
   799  0011  34FF               	retlw	255
   800  0012  34FF               	retlw	255
   801  0013  34FF               	retlw	255
   802  0014  3401               	retlw	1
   803  0015  3400               	retlw	0
   804  0016  3400               	retlw	0
   805  0017  3480               	retlw	128
   806  0018  3401               	retlw	1
   807  0019  3400               	retlw	0
   808  001A  3400               	retlw	0
   809  001B  3480               	retlw	128
   810  001C  3401               	retlw	1
   811  001D  3400               	retlw	0
   812  001E  3400               	retlw	0
   813  001F  3480               	retlw	128
   814  0020  3401               	retlw	1
   815  0021  3400               	retlw	0
   816  0022  3400               	retlw	0
   817  0023  3480               	retlw	128
   818  0024  3401               	retlw	1
   819  0025  3400               	retlw	0
   820  0026  3400               	retlw	0
   821  0027  3480               	retlw	128
   822  0028  3401               	retlw	1
   823  0029  3400               	retlw	0
   824  002A  3400               	retlw	0
   825  002B  3480               	retlw	128
   826  002C  3401               	retlw	1
   827  002D  3400               	retlw	0
   828  002E  3400               	retlw	0
   829  002F  3480               	retlw	128
   830  0030  3401               	retlw	1
   831  0031  3400               	retlw	0
   832  0032  3400               	retlw	0
   833  0033  3480               	retlw	128
   834  0034  3401               	retlw	1
   835  0035  3400               	retlw	0
   836  0036  3400               	retlw	0
   837  0037  3480               	retlw	128
   838  0038  3401               	retlw	1
   839  0039  3400               	retlw	0
   840  003A  3400               	retlw	0
   841  003B  3480               	retlw	128
   842  003C  3401               	retlw	1
   843  003D  3400               	retlw	0
   844  003E  3400               	retlw	0
   845  003F  3480               	retlw	128
   846  0040  3401               	retlw	1
   847  0041  3400               	retlw	0
   848  0042  3400               	retlw	0
   849  0043  3480               	retlw	128
   850  0044  3401               	retlw	1
   851  0045  3400               	retlw	0
   852  0046  3400               	retlw	0
   853  0047  3480               	retlw	128
   854  0048  3401               	retlw	1
   855  0049  3400               	retlw	0
   856  004A  3400               	retlw	0
   857  004B  3480               	retlw	128
   858  004C  3401               	retlw	1
   859  004D  3400               	retlw	0
   860  004E  3400               	retlw	0
   861  004F  3480               	retlw	128
   862  0050  3401               	retlw	1
   863  0051  3400               	retlw	0
   864  0052  3400               	retlw	0
   865  0053  3480               	retlw	128
   866  0054  3401               	retlw	1
   867  0055  3400               	retlw	0
   868  0056  3400               	retlw	0
   869  0057  3480               	retlw	128
   870  0058  3401               	retlw	1
   871  0059  3400               	retlw	0
   872  005A  3400               	retlw	0
   873  005B  3480               	retlw	128
   874  005C  3401               	retlw	1
   875  005D  3400               	retlw	0
   876  005E  3400               	retlw	0
   877  005F  3480               	retlw	128
   878  0060  3401               	retlw	1
   879  0061  3400               	retlw	0
   880  0062  3400               	retlw	0
   881  0063  3480               	retlw	128
   882  0064  3401               	retlw	1
   883  0065  3400               	retlw	0
   884  0066  3400               	retlw	0
   885  0067  3480               	retlw	128
   886  0068  3401               	retlw	1
   887  0069  3400               	retlw	0
   888  006A  3400               	retlw	0
   889  006B  3480               	retlw	128
   890  006C  3401               	retlw	1
   891  006D  3400               	retlw	0
   892  006E  3400               	retlw	0
   893  006F  3480               	retlw	128
   894  0070  3401               	retlw	1
   895  0071  3400               	retlw	0
   896  0072  3400               	retlw	0
   897  0073  3480               	retlw	128
   898  0074  3401               	retlw	1
   899  0075  3400               	retlw	0
   900  0076  3400               	retlw	0
   901  0077  3480               	retlw	128
   902  0078  3401               	retlw	1
   903  0079  3400               	retlw	0
   904  007A  3400               	retlw	0
   905  007B  3480               	retlw	128
   906  007C  3401               	retlw	1
   907  007D  3400               	retlw	0
   908  007E  3400               	retlw	0
   909  007F  3480               	retlw	128
   910  0080  3401               	retlw	1
   911  0081  3400               	retlw	0
   912  0082  3400               	retlw	0
   913  0083  3480               	retlw	128
   914  0084  3401               	retlw	1
   915  0085  3400               	retlw	0
   916  0086  3400               	retlw	0
   917  0087  3480               	retlw	128
   918  0088  3401               	retlw	1
   919  0089  3400               	retlw	0
   920  008A  3400               	retlw	0
   921  008B  3480               	retlw	128
   922  008C  3401               	retlw	1
   923  008D  3400               	retlw	0
   924  008E  3400               	retlw	0
   925  008F  3480               	retlw	128
   926  0090  3401               	retlw	1
   927  0091  3400               	retlw	0
   928  0092  3400               	retlw	0
   929  0093  3480               	retlw	128
   930  0094  3401               	retlw	1
   931  0095  3400               	retlw	0
   932  0096  3400               	retlw	0
   933  0097  3480               	retlw	128
   934  0098  3401               	retlw	1
   935  0099  3400               	retlw	0
   936  009A  3400               	retlw	0
   937  009B  3480               	retlw	128
   938  009C  3401               	retlw	1
   939  009D  3400               	retlw	0
   940  009E  3400               	retlw	0
   941  009F  3480               	retlw	128
   942  00A0  3401               	retlw	1
   943  00A1  3400               	retlw	0
   944  00A2  3400               	retlw	0
   945  00A3  3480               	retlw	128
   946  00A4  3401               	retlw	1
   947  00A5  3400               	retlw	0
   948  00A6  3400               	retlw	0
   949  00A7  3480               	retlw	128
   950  00A8  3401               	retlw	1
   951  00A9  3400               	retlw	0
   952  00AA  3400               	retlw	0
   953  00AB  3480               	retlw	128
   954  00AC  3401               	retlw	1
   955  00AD  3400               	retlw	0
   956  00AE  3400               	retlw	0
   957  00AF  3480               	retlw	128
   958  00B0  3401               	retlw	1
   959  00B1  3400               	retlw	0
   960  00B2  3400               	retlw	0
   961  00B3  3480               	retlw	128
   962  00B4  3401               	retlw	1
   963  00B5  3400               	retlw	0
   964  00B6  3400               	retlw	0
   965  00B7  3480               	retlw	128
   966  00B8  3401               	retlw	1
   967  00B9  34FF               	retlw	255
   968  00BA  34FF               	retlw	255
   969  00BB  3480               	retlw	128
   970  00BC  3401               	retlw	1
   971  00BD  34FF               	retlw	255
   972  00BE  34FF               	retlw	255
   973  00BF  3480               	retlw	128
   974  00C0  3401               	retlw	1
   975  00C1  34FF               	retlw	255
   976  00C2  34FF               	retlw	255
   977  00C3  3480               	retlw	128
   978  00C4  3401               	retlw	1
   979  00C5  3407               	retlw	7
   980  00C6  34E0               	retlw	224
   981  00C7  3480               	retlw	128
   982  00C8  3401               	retlw	1
   983  00C9  3407               	retlw	7
   984  00CA  34E0               	retlw	224
   985  00CB  3480               	retlw	128
   986  00CC  3401               	retlw	1
   987  00CD  3407               	retlw	7
   988  00CE  34E0               	retlw	224
   989  00CF  3480               	retlw	128
   990  00D0  3401               	retlw	1
   991  00D1  3407               	retlw	7
   992  00D2  34E0               	retlw	224
   993  00D3  3480               	retlw	128
   994  00D4  3401               	retlw	1
   995  00D5  3407               	retlw	7
   996  00D6  34E0               	retlw	224
   997  00D7  3480               	retlw	128
   998  00D8  3401               	retlw	1
   999  00D9  3407               	retlw	7
  1000  00DA  34E0               	retlw	224
  1001  00DB  3480               	retlw	128
  1002  00DC  3401               	retlw	1
  1003  00DD  3407               	retlw	7
  1004  00DE  34E0               	retlw	224
  1005  00DF  3480               	retlw	128
  1006  00E0  3401               	retlw	1
  1007  00E1  3407               	retlw	7
  1008  00E2  34E0               	retlw	224
  1009  00E3  3480               	retlw	128
  1010  00E4  3401               	retlw	1
  1011  00E5  3400               	retlw	0
  1012  00E6  3400               	retlw	0
  1013  00E7  3480               	retlw	128
  1014  00E8  3401               	retlw	1
  1015  00E9  3400               	retlw	0
  1016  00EA  3400               	retlw	0
  1017  00EB  3480               	retlw	128
  1018  00EC  3401               	retlw	1
  1019  00ED  3400               	retlw	0
  1020  00EE  3400               	retlw	0
  1021  00EF  3480               	retlw	128
  1022  00F0  3401               	retlw	1
  1023  00F1  34FF               	retlw	255
  1024  00F2  34FF               	retlw	255
  1025  00F3  3480               	retlw	128
  1026  00F4  3401               	retlw	1
  1027  00F5  34FF               	retlw	255
  1028  00F6  34FF               	retlw	255
  1029  00F7  3480               	retlw	128
  1030  00F8  3401               	retlw	1
  1031  00F9  34FF               	retlw	255
  1032  00FA  34FF               	retlw	255
  1033  00FB  3480               	retlw	128
  1034  00FC  3401               	retlw	1
  1035  00FD  3400               	retlw	0
  1036  00FE  3400               	retlw	0
  1037  00FF  3480               	retlw	128
  1038  0100  3401               	retlw	1
  1039  0101  3400               	retlw	0
  1040  0102  3400               	retlw	0
  1041  0103  3480               	retlw	128
  1042  0104  3401               	retlw	1
  1043  0105  3400               	retlw	0
  1044  0106  3400               	retlw	0
  1045  0107  3480               	retlw	128
  1046  0108  3401               	retlw	1
  1047  0109  34FF               	retlw	255
  1048  010A  34FF               	retlw	255
  1049  010B  3480               	retlw	128
  1050  010C  3401               	retlw	1
  1051  010D  34FF               	retlw	255
  1052  010E  34FF               	retlw	255
  1053  010F  3480               	retlw	128
  1054  0110  3401               	retlw	1
  1055  0111  34FF               	retlw	255
  1056  0112  34FF               	retlw	255
  1057  0113  3480               	retlw	128
  1058  0114  3401               	retlw	1
  1059  0115  3407               	retlw	7
  1060  0116  3407               	retlw	7
  1061  0117  3480               	retlw	128
  1062  0118  3401               	retlw	1
  1063  0119  3407               	retlw	7
  1064  011A  3407               	retlw	7
  1065  011B  3480               	retlw	128
  1066  011C  3401               	retlw	1
  1067  011D  3407               	retlw	7
  1068  011E  3407               	retlw	7
  1069  011F  3480               	retlw	128
  1070  0120  3401               	retlw	1
  1071  0121  3407               	retlw	7
  1072  0122  3407               	retlw	7
  1073  0123  3480               	retlw	128
  1074  0124  3401               	retlw	1
  1075  0125  3407               	retlw	7
  1076  0126  3407               	retlw	7
  1077  0127  3480               	retlw	128
  1078  0128  3401               	retlw	1
  1079  0129  3407               	retlw	7
  1080  012A  3407               	retlw	7
  1081  012B  3480               	retlw	128
  1082  012C  3401               	retlw	1
  1083  012D  34FF               	retlw	255
  1084  012E  34FF               	retlw	255
  1085  012F  3480               	retlw	128
  1086  0130  3401               	retlw	1
  1087  0131  34FF               	retlw	255
  1088  0132  34FF               	retlw	255
  1089  0133  3480               	retlw	128
  1090  0134  3401               	retlw	1
  1091  0135  34FF               	retlw	255
  1092  0136  34FF               	retlw	255
  1093  0137  3480               	retlw	128
  1094  0138  3401               	retlw	1
  1095  0139  3400               	retlw	0
  1096  013A  3400               	retlw	0
  1097  013B  3480               	retlw	128
  1098  013C  3401               	retlw	1
  1099  013D  3400               	retlw	0
  1100  013E  3400               	retlw	0
  1101  013F  3480               	retlw	128
  1102  0140  3401               	retlw	1
  1103  0141  3400               	retlw	0
  1104  0142  3400               	retlw	0
  1105  0143  3480               	retlw	128
  1106  0144  3401               	retlw	1
  1107  0145  34FF               	retlw	255
  1108  0146  34FF               	retlw	255
  1109  0147  3480               	retlw	128
  1110  0148  3401               	retlw	1
  1111  0149  34FF               	retlw	255
  1112  014A  34FF               	retlw	255
  1113  014B  3480               	retlw	128
  1114  014C  3401               	retlw	1
  1115  014D  34FF               	retlw	255
  1116  014E  34FF               	retlw	255
  1117  014F  3480               	retlw	128
  1118  0150  3401               	retlw	1
  1119  0151  3407               	retlw	7
  1120  0152  34E0               	retlw	224
  1121  0153  3480               	retlw	128
  1122  0154  3401               	retlw	1
  1123  0155  3407               	retlw	7
  1124  0156  34E0               	retlw	224
  1125  0157  3480               	retlw	128
  1126  0158  3401               	retlw	1
  1127  0159  3407               	retlw	7
  1128  015A  34E0               	retlw	224
  1129  015B  3480               	retlw	128
  1130  015C  3401               	retlw	1
  1131  015D  3407               	retlw	7
  1132  015E  34E0               	retlw	224
  1133  015F  3480               	retlw	128
  1134  0160  3401               	retlw	1
  1135  0161  3407               	retlw	7
  1136  0162  34E0               	retlw	224
  1137  0163  3480               	retlw	128
  1138  0164  3401               	retlw	1
  1139  0165  3407               	retlw	7
  1140  0166  34E0               	retlw	224
  1141  0167  3480               	retlw	128
  1142  0168  3401               	retlw	1
  1143  0169  34FF               	retlw	255
  1144  016A  34FF               	retlw	255
  1145  016B  3480               	retlw	128
  1146  016C  3401               	retlw	1
  1147  016D  34FF               	retlw	255
  1148  016E  34FF               	retlw	255
  1149  016F  3480               	retlw	128
  1150  0170  3401               	retlw	1
  1151  0171  34FF               	retlw	255
  1152  0172  34FF               	retlw	255
  1153  0173  3480               	retlw	128
  1154  0174  3401               	retlw	1
  1155  0175  3400               	retlw	0
  1156  0176  3400               	retlw	0
  1157  0177  3480               	retlw	128
  1158  0178  3401               	retlw	1
  1159  0179  3400               	retlw	0
  1160  017A  3400               	retlw	0
  1161  017B  3480               	retlw	128
  1162  017C  3401               	retlw	1
  1163  017D  3400               	retlw	0
  1164  017E  3400               	retlw	0
  1165  017F  3480               	retlw	128
  1166  0180  3401               	retlw	1
  1167  0181  3400               	retlw	0
  1168  0182  3400               	retlw	0
  1169  0183  3480               	retlw	128
  1170  0184  3401               	retlw	1
  1171  0185  3400               	retlw	0
  1172  0186  3400               	retlw	0
  1173  0187  3480               	retlw	128
  1174  0188  3401               	retlw	1
  1175  0189  3400               	retlw	0
  1176  018A  3400               	retlw	0
  1177  018B  3480               	retlw	128
  1178  018C  3401               	retlw	1
  1179  018D  3400               	retlw	0
  1180  018E  3400               	retlw	0
  1181  018F  3480               	retlw	128
  1182  0190  3401               	retlw	1
  1183  0191  3400               	retlw	0
  1184  0192  3400               	retlw	0
  1185  0193  3480               	retlw	128
  1186  0194  3401               	retlw	1
  1187  0195  3400               	retlw	0
  1188  0196  3400               	retlw	0
  1189  0197  3480               	retlw	128
  1190  0198  3401               	retlw	1
  1191  0199  3400               	retlw	0
  1192  019A  3400               	retlw	0
  1193  019B  3480               	retlw	128
  1194  019C  3401               	retlw	1
  1195  019D  3400               	retlw	0
  1196  019E  3400               	retlw	0
  1197  019F  3480               	retlw	128
  1198  01A0  3401               	retlw	1
  1199  01A1  3400               	retlw	0
  1200  01A2  3400               	retlw	0
  1201  01A3  3480               	retlw	128
  1202  01A4  3401               	retlw	1
  1203  01A5  3400               	retlw	0
  1204  01A6  3400               	retlw	0
  1205  01A7  3480               	retlw	128
  1206  01A8  3401               	retlw	1
  1207  01A9  3400               	retlw	0
  1208  01AA  3400               	retlw	0
  1209  01AB  3480               	retlw	128
  1210  01AC  3401               	retlw	1
  1211  01AD  3400               	retlw	0
  1212  01AE  3400               	retlw	0
  1213  01AF  3480               	retlw	128
  1214  01B0  3401               	retlw	1
  1215  01B1  3400               	retlw	0
  1216  01B2  3400               	retlw	0
  1217  01B3  3480               	retlw	128
  1218  01B4  3401               	retlw	1
  1219  01B5  3400               	retlw	0
  1220  01B6  3400               	retlw	0
  1221  01B7  3480               	retlw	128
  1222  01B8  3401               	retlw	1
  1223  01B9  3400               	retlw	0
  1224  01BA  3400               	retlw	0
  1225  01BB  3480               	retlw	128
  1226  01BC  3401               	retlw	1
  1227  01BD  3400               	retlw	0
  1228  01BE  3400               	retlw	0
  1229  01BF  3480               	retlw	128
  1230  01C0  3401               	retlw	1
  1231  01C1  3400               	retlw	0
  1232  01C2  3400               	retlw	0
  1233  01C3  3480               	retlw	128
  1234  01C4  3401               	retlw	1
  1235  01C5  3400               	retlw	0
  1236  01C6  3400               	retlw	0
  1237  01C7  3480               	retlw	128
  1238  01C8  3401               	retlw	1
  1239  01C9  3400               	retlw	0
  1240  01CA  3400               	retlw	0
  1241  01CB  3480               	retlw	128
  1242  01CC  3401               	retlw	1
  1243  01CD  3400               	retlw	0
  1244  01CE  3400               	retlw	0
  1245  01CF  3480               	retlw	128
  1246  01D0  3401               	retlw	1
  1247  01D1  3400               	retlw	0
  1248  01D2  3400               	retlw	0
  1249  01D3  3480               	retlw	128
  1250  01D4  3401               	retlw	1
  1251  01D5  3400               	retlw	0
  1252  01D6  3400               	retlw	0
  1253  01D7  3480               	retlw	128
  1254  01D8  3401               	retlw	1
  1255  01D9  3400               	retlw	0
  1256  01DA  3400               	retlw	0
  1257  01DB  3480               	retlw	128
  1258  01DC  3401               	retlw	1
  1259  01DD  3400               	retlw	0
  1260  01DE  3400               	retlw	0
  1261  01DF  3480               	retlw	128
  1262  01E0  3401               	retlw	1
  1263  01E1  3400               	retlw	0
  1264  01E2  3400               	retlw	0
  1265  01E3  3480               	retlw	128
  1266  01E4  3401               	retlw	1
  1267  01E5  3400               	retlw	0
  1268  01E6  3400               	retlw	0
  1269  01E7  3480               	retlw	128
  1270  01E8  3401               	retlw	1
  1271  01E9  3400               	retlw	0
  1272  01EA  3400               	retlw	0
  1273  01EB  3480               	retlw	128
  1274  01EC  3401               	retlw	1
  1275  01ED  3400               	retlw	0
  1276  01EE  3400               	retlw	0
  1277  01EF  3480               	retlw	128
  1278  01F0  3401               	retlw	1
  1279  01F1  3400               	retlw	0
  1280  01F2  3400               	retlw	0
  1281  01F3  3480               	retlw	128
  1282  01F4  3401               	retlw	1
  1283  01F5  3400               	retlw	0
  1284  01F6  3400               	retlw	0
  1285  01F7  3480               	retlw	128
  1286  01F8  3401               	retlw	1
  1287  01F9  3400               	retlw	0
  1288  01FA  3400               	retlw	0
  1289  01FB  3480               	retlw	128
  1290  01FC  3401               	retlw	1
  1291  01FD  3400               	retlw	0
  1292  01FE  3400               	retlw	0
  1293  01FF  3480               	retlw	128
  1294  0200  3401               	retlw	1
  1295  0201  3400               	retlw	0
  1296  0202  3400               	retlw	0
  1297  0203  3480               	retlw	128
  1298  0204  3401               	retlw	1
  1299  0205  3400               	retlw	0
  1300  0206  3400               	retlw	0
  1301  0207  3480               	retlw	128
  1302  0208  3401               	retlw	1
  1303  0209  3400               	retlw	0
  1304  020A  3400               	retlw	0
  1305  020B  3480               	retlw	128
  1306  020C  34FF               	retlw	255
  1307  020D  34FF               	retlw	255
  1308  020E  34FF               	retlw	255
  1309  020F  34FF               	retlw	255
  1310  0210                     __end_ofloop@image:	
  1311                           
  1312                           	psect	stringtext2
  1313  03BC                     __pstringtext2:	
  1314  03BC                     OLED_Init@commands:	
  1315  03BC  34AE               	retlw	174
  1316  03BD  34D5               	retlw	213
  1317  03BE  3480               	retlw	128
  1318  03BF  34A8               	retlw	168
  1319  03C0  341F               	retlw	31
  1320  03C1  34D3               	retlw	211
  1321  03C2  3400               	retlw	0
  1322  03C3  3440               	retlw	64
  1323  03C4  348D               	retlw	141
  1324  03C5  3414               	retlw	20
  1325  03C6  3420               	retlw	32
  1326  03C7  3401               	retlw	1
  1327  03C8  34A0               	retlw	160
  1328  03C9  34C0               	retlw	192
  1329  03CA  34DA               	retlw	218
  1330  03CB  3402               	retlw	2
  1331  03CC  3481               	retlw	129
  1332  03CD  348F               	retlw	143
  1333  03CE  34D9               	retlw	217
  1334  03CF  34F1               	retlw	241
  1335  03D0  34DB               	retlw	219
  1336  03D1  3420               	retlw	32
  1337  03D2  34A4               	retlw	164
  1338  03D3  34A6               	retlw	166
  1339  03D4  342E               	retlw	46
  1340  03D5  34AF               	retlw	175
  1341  03D6                     __end_ofOLED_Init@commands:	
  1342  005F                     _GIE	set	95
  1343  005E                     _PEIE	set	94
  1344  005D                     _TMR0IE	set	93
  1345  008E                     _TRISC	set	142
  1346  008C                     _TRISA	set	140
  1347  0095                     _OPTION_REG	set	149
  1348  0098                     _OSCTUNE	set	152
  1349  0099                     _OSCCON	set	153
  1350  048B                     _SSP1IE	set	1163
  1351  010E                     _LATC	set	270
  1352  010C                     _LATA	set	268
  1353  018E                     _ANSELC	set	398
  1354  018C                     _ANSELA	set	396
  1355  0211                     _SSPBUF	set	529
  1356  0212                     _SSPADD	set	530
  1357  0214                     _SSPSTAT	set	532
  1358  0217                     _SSPCON3	set	535
  1359  0216                     _SSPCON2	set	534
  1360  0215                     _SSPCON1	set	533
  1361  10B4                     _ACKEN	set	4276
  1362  10B5                     _ACKDT	set	4277
  1363  10B3                     _RCEN	set	4275
  1364  10B2                     _PEN	set	4274
  1365  10B1                     _RSEN	set	4273
  1366  10B0                     _SEN	set	4272
  1367                           
  1368                           ; #config settings
  1369  0000                     
  1370                           	psect	cinit
  1371  000A                     start_initialization:	
  1372  000A                     __initialization:	
  1373                           
  1374                           ; Clear objects allocated to BANK0
  1375  000A  0020               	movlb	0	; select bank0
  1376  000B  01B3               	clrf	__pbssBANK0& (0+127)
  1377  000C                     end_of_initialization:	
  1378                           ;End of C runtime variable initialization code
  1379                           
  1380  000C                     __end_of__initialization:	
  1381  000C  107E               	bcf	int$flags,0	;clear compiler interrupt flag (level 1)
  1382  000D  0020               	movlb	0
  1383  000E  3184  2C1E         	ljmp	_main	;jump to C main() function
  1384                           
  1385                           	psect	bssBANK0
  1386  0033                     __pbssBANK0:	
  1387  0033                     _invert:	
  1388  0033                     	ds	1
  1389                           
  1390                           	psect	cstackCOMMON
  1391  0070                     __pcstackCOMMON:	
  1392  0070                     ?_init:	
  1393  0070                     ?_OLED_Init:	
  1394                           ; 1 bytes @ 0x0
  1395                           
  1396  0070                     ?_loop:	
  1397                           ; 1 bytes @ 0x0
  1398                           
  1399  0070                     ?_OLED_InvertDisplay:	
  1400                           ; 1 bytes @ 0x0
  1401                           
  1402  0070                     ?_OLED_ClearDisplay:	
  1403                           ; 1 bytes @ 0x0
  1404                           
  1405  0070                     ?_main:	
  1406                           ; 1 bytes @ 0x0
  1407                           
  1408  0070                     ?_isr:	
  1409                           ; 1 bytes @ 0x0
  1410                           
  1411  0070                     ??_isr:	
  1412                           ; 1 bytes @ 0x0
  1413                           
  1414  0070                     ?_I2C_Master_Wait:	
  1415                           ; 1 bytes @ 0x0
  1416                           
  1417  0070                     ??_I2C_Master_Wait:	
  1418                           ; 1 bytes @ 0x0
  1419                           
  1420  0070                     ?_I2C_Master_Start:	
  1421                           ; 1 bytes @ 0x0
  1422                           
  1423  0070                     ??_I2C_Master_Start:	
  1424                           ; 1 bytes @ 0x0
  1425                           
  1426  0070                     ?_I2C_Master_Stop:	
  1427                           ; 1 bytes @ 0x0
  1428                           
  1429  0070                     ??_I2C_Master_Stop:	
  1430                           ; 1 bytes @ 0x0
  1431                           
  1432  0070                     ?_I2C_Master_Address:	
  1433                           ; 1 bytes @ 0x0
  1434                           
  1435  0070                     ?_I2C_Master_Write:	
  1436                           ; 1 bytes @ 0x0
  1437                           
  1438  0070                     ??_I2C_Master_Write:	
  1439                           ; 1 bytes @ 0x0
  1440                           
  1441  0070                     ?_OLED_Command:	
  1442                           ; 1 bytes @ 0x0
  1443                           
  1444  0070                     ?___lldiv:	
  1445                           ; 1 bytes @ 0x0
  1446                           
  1447  0070                     I2C_Master_Address@mode:	
  1448                           ; 4 bytes @ 0x0
  1449                           
  1450  0070                     I2C_Master_Write@d:	
  1451                           ; 1 bytes @ 0x0
  1452                           
  1453  0070                     ___lldiv@divisor:	
  1454                           ; 1 bytes @ 0x0
  1455                           
  1456                           
  1457                           ; 4 bytes @ 0x0
  1458  0070                     	ds	1
  1459  0071                     ??_I2C_Master_Address:	
  1460                           
  1461                           ; 1 bytes @ 0x1
  1462  0071                     	ds	1
  1463  0072                     I2C_Master_Address@address:	
  1464                           
  1465                           ; 1 bytes @ 0x2
  1466  0072                     	ds	1
  1467  0073                     I2C_Master_Address@addressWithMode:	
  1468                           
  1469                           ; 1 bytes @ 0x3
  1470  0073                     	ds	1
  1471  0074                     ??_OLED_Command:	
  1472  0074                     ?_OLED_Commands:	
  1473                           ; 1 bytes @ 0x4
  1474                           
  1475  0074                     OLED_Command@c:	
  1476                           ; 1 bytes @ 0x4
  1477                           
  1478  0074                     OLED_Commands@c:	
  1479                           ; 1 bytes @ 0x4
  1480                           
  1481  0074                     ___lldiv@dividend:	
  1482                           ; 2 bytes @ 0x4
  1483                           
  1484                           
  1485                           ; 4 bytes @ 0x4
  1486  0074                     	ds	1
  1487  0075                     ??_OLED_InvertDisplay:	
  1488  0075                     OLED_InvertDisplay@i:	
  1489                           ; 1 bytes @ 0x5
  1490                           
  1491                           
  1492                           ; 1 bytes @ 0x5
  1493  0075                     	ds	1
  1494  0076                     OLED_Commands@n:	
  1495  0076                     _OLED_InvertDisplay$147:	
  1496                           ; 1 bytes @ 0x6
  1497                           
  1498                           
  1499                           ; 2 bytes @ 0x6
  1500  0076                     	ds	1
  1501  0077                     ??_OLED_Commands:	
  1502  0077                     ?_OLED_SetPageAndColumnAddress:	
  1503                           ; 1 bytes @ 0x7
  1504                           
  1505  0077                     OLED_SetPageAndColumnAddress@endPage:	
  1506                           ; 1 bytes @ 0x7
  1507                           
  1508                           
  1509                           ; 1 bytes @ 0x7
  1510  0077                     	ds	1
  1511  0078                     ??___lldiv:	
  1512  0078                     OLED_SetPageAndColumnAddress@startColumn:	
  1513                           ; 1 bytes @ 0x8
  1514                           
  1515                           
  1516                           ; 1 bytes @ 0x8
  1517  0078                     	ds	1
  1518  0079                     OLED_SetPageAndColumnAddress@endColumn:	
  1519  0079                     ___lldiv@quotient:	
  1520                           ; 1 bytes @ 0x9
  1521                           
  1522                           
  1523                           ; 4 bytes @ 0x9
  1524  0079                     	ds	1
  1525  007A                     ??_OLED_SetPageAndColumnAddress:	
  1526                           
  1527                           ; 1 bytes @ 0xA
  1528  007A                     	ds	1
  1529  007B                     ??_OLED_DrawBitmap:	
  1530  007B                     ??_OLED_ClearDisplay:	
  1531                           ; 1 bytes @ 0xB
  1532                           
  1533                           
  1534                           ; 1 bytes @ 0xB
  1535  007B                     	ds	2
  1536  007D                     ??_OLED_Init:	
  1537  007D                     ___lldiv@counter:	
  1538                           ; 1 bytes @ 0xD
  1539                           
  1540                           
  1541                           ; 1 bytes @ 0xD
  1542  007D                     	ds	1
  1543  007E                     ??_init:	
  1544  007E                     ??_main:	
  1545                           ; 1 bytes @ 0xE
  1546                           
  1547                           
  1548                           	psect	cstackBANK0
  1549  0020                     __pcstackBANK0:	
  1550                           ; 1 bytes @ 0xE
  1551                           
  1552  0020                     ?_I2C_Master_Init:	
  1553  0020                     I2C_Master_Init@c:	
  1554                           ; 1 bytes @ 0x0
  1555                           
  1556  0020                     OLED_SetPageAndColumnAddress@commands:	
  1557                           ; 4 bytes @ 0x0
  1558                           
  1559                           
  1560                           ; 6 bytes @ 0x0
  1561  0020                     	ds	4
  1562  0024                     ??_I2C_Master_Init:	
  1563                           
  1564                           ; 1 bytes @ 0x4
  1565  0024                     	ds	2
  1566  0026                     OLED_SetPageAndColumnAddress@startPage:	
  1567                           
  1568                           ; 1 bytes @ 0x6
  1569  0026                     	ds	1
  1570  0027                     ?_OLED_DrawBitmap:	
  1571  0027                     OLED_DrawBitmap@endPage:	
  1572                           ; 1 bytes @ 0x7
  1573                           
  1574  0027                     OLED_ClearDisplay@cnt:	
  1575                           ; 1 bytes @ 0x7
  1576                           
  1577                           
  1578                           ; 2 bytes @ 0x7
  1579  0027                     	ds	1
  1580  0028                     OLED_DrawBitmap@startColumn:	
  1581                           
  1582                           ; 1 bytes @ 0x8
  1583  0028                     	ds	1
  1584  0029                     OLED_DrawBitmap@endColumn:	
  1585                           
  1586                           ; 1 bytes @ 0x9
  1587  0029                     	ds	1
  1588  002A                     OLED_DrawBitmap@bitmap:	
  1589                           
  1590                           ; 2 bytes @ 0xA
  1591  002A                     	ds	2
  1592  002C                     OLED_DrawBitmap@bitmapSize:	
  1593                           
  1594                           ; 2 bytes @ 0xC
  1595  002C                     	ds	2
  1596  002E                     OLED_DrawBitmap@startPage:	
  1597                           
  1598                           ; 1 bytes @ 0xE
  1599  002E                     	ds	1
  1600  002F                     OLED_DrawBitmap@cnt:	
  1601                           
  1602                           ; 2 bytes @ 0xF
  1603  002F                     	ds	2
  1604  0031                     ??_loop:	
  1605                           
  1606                           ; 1 bytes @ 0x11
  1607  0031                     	ds	2
  1608                           
  1609                           	psect	maintext
  1610  041E                     __pmaintext:	
  1611 ;;
  1612 ;;Main: autosize = 0, tempsize = 0, incstack = 0, save=0
  1613 ;;
  1614 ;; *************** function _main *****************
  1615 ;; Defined at:
  1616 ;;		line 19 in file "main.c"
  1617 ;; Parameters:    Size  Location     Type
  1618 ;;		None
  1619 ;; Auto vars:     Size  Location     Type
  1620 ;;		None
  1621 ;; Return value:  Size  Location     Type
  1622 ;;                  1    wreg      void 
  1623 ;; Registers used:
  1624 ;;		wreg, fsr0l, fsr0h, status,2, status,0, pclath, cstack
  1625 ;; Tracked objects:
  1626 ;;		On entry : B1F/0
  1627 ;;		On exit  : 0/0
  1628 ;;		Unchanged: 0/0
  1629 ;; Data sizes:     COMMON   BANK0   BANK1   BANK2   BANK3   BANK4   BANK5   BANK6   BANK7   BANK8   BANK9  BANK10  BANK1
      +1  BANK12
  1630 ;;      Params:         0       0       0       0       0       0       0       0       0       0       0       0       
      +0       0
  1631 ;;      Locals:         0       0       0       0       0       0       0       0       0       0       0       0       
      +0       0
  1632 ;;      Temps:          0       0       0       0       0       0       0       0       0       0       0       0       
      +0       0
  1633 ;;      Totals:         0       0       0       0       0       0       0       0       0       0       0       0       
      +0       0
  1634 ;;Total ram usage:        0 bytes
  1635 ;; Hardware stack levels required when called:    7
  1636 ;; This function calls:
  1637 ;;		_OLED_Init
  1638 ;;		_init
  1639 ;;		_loop
  1640 ;; This function is called by:
  1641 ;;		Startup code after reset
  1642 ;; This function uses a non-reentrant model
  1643 ;;
  1644                           
  1645                           
  1646                           ;psect for function _main
  1647  041E                     _main:	
  1648  041E                     l1160:	
  1649                           ;incstack = 0
  1650                           ; Regs used in _main: [wreg-fsr0h+status,2+status,0+pclath+cstack]
  1651                           
  1652                           
  1653                           ;main.c: 20: init();
  1654  041E  3183  2373  3184   	fcall	_init
  1655  0421                     l1162:	
  1656                           
  1657                           ;main.c: 23: OLED_Init();
  1658  0421  3184  240F  3184   	fcall	_OLED_Init
  1659  0424                     l1164:	
  1660  0424  3182  226A  3184   	fcall	_loop
  1661  0427  2C24               	goto	l1164
  1662  0428  3180  2808         	ljmp	start
  1663  042A                     __end_of_main:	
  1664                           
  1665                           	psect	text1
  1666  026A                     __ptext1:	
  1667 ;; *************** function _loop *****************
  1668 ;; Defined at:
  1669 ;;		line 33 in file "main.c"
  1670 ;; Parameters:    Size  Location     Type
  1671 ;;		None
  1672 ;; Auto vars:     Size  Location     Type
  1673 ;;		None
  1674 ;; Return value:  Size  Location     Type
  1675 ;;                  1    wreg      void 
  1676 ;; Registers used:
  1677 ;;		wreg, fsr0l, fsr0h, status,2, status,0, pclath, cstack
  1678 ;; Tracked objects:
  1679 ;;		On entry : 0/0
  1680 ;;		On exit  : 0/0
  1681 ;;		Unchanged: 0/0
  1682 ;; Data sizes:     COMMON   BANK0   BANK1   BANK2   BANK3   BANK4   BANK5   BANK6   BANK7   BANK8   BANK9  BANK10  BANK1
      +1  BANK12
  1683 ;;      Params:         0       0       0       0       0       0       0       0       0       0       0       0       
      +0       0
  1684 ;;      Locals:         0       0       0       0       0       0       0       0       0       0       0       0       
      +0       0
  1685 ;;      Temps:          0       2       0       0       0       0       0       0       0       0       0       0       
      +0       0
  1686 ;;      Totals:         0       2       0       0       0       0       0       0       0       0       0       0       
      +0       0
  1687 ;;Total ram usage:        2 bytes
  1688 ;; Hardware stack levels used:    1
  1689 ;; Hardware stack levels required when called:    6
  1690 ;; This function calls:
  1691 ;;		_OLED_DrawBitmap
  1692 ;;		_OLED_InvertDisplay
  1693 ;; This function is called by:
  1694 ;;		_main
  1695 ;; This function uses a non-reentrant model
  1696 ;;
  1697                           
  1698                           
  1699                           ;psect for function _loop
  1700  026A                     _loop:	
  1701  026A                     l1148:	
  1702                           ;incstack = 0
  1703                           ; Regs used in _loop: [wreg-fsr0h+status,2+status,0+pclath+cstack]
  1704                           
  1705                           
  1706                           ;main.c: 34: _delay((unsigned long)((1500)*(32000000/4000.0)));
  1707  026A  303D               	movlw	61
  1708  026B  0020               	movlb	0	; select bank0
  1709  026C  00B2               	movwf	??_loop+1
  1710  026D  30E1               	movlw	225
  1711  026E  00B1               	movwf	??_loop
  1712  026F  303F               	movlw	63
  1713  0270                     u357:	
  1714  0270  0B89               	decfsz	9,f
  1715  0271  2A70               	goto	u357
  1716  0272  0BB1               	decfsz	??_loop,f
  1717  0273  2A70               	goto	u357
  1718  0274  0BB2               	decfsz	??_loop+1,f
  1719  0275  2A70               	goto	u357
  1720  0276  3200               	nop2
  1721                           
  1722                           ;main.c: 35: _delay((unsigned long)((1500)*(32000000/4000.0)));
  1723  0277  303D               	movlw	61
  1724  0278  0020               	movlb	0	; select bank0
  1725  0279  00B2               	movwf	??_loop+1
  1726  027A  30E1               	movlw	225
  1727  027B  00B1               	movwf	??_loop
  1728  027C  303F               	movlw	63
  1729  027D                     u367:	
  1730  027D  0B89               	decfsz	9,f
  1731  027E  2A7D               	goto	u367
  1732  027F  0BB1               	decfsz	??_loop,f
  1733  0280  2A7D               	goto	u367
  1734  0281  0BB2               	decfsz	??_loop+1,f
  1735  0282  2A7D               	goto	u367
  1736  0283  3200               	nop2
  1737  0284                     l1150:	
  1738                           
  1739                           ;main.c: 38: const uint8_t image[] = {;main.c: 39: 0b11111111, 0b11111111, 0b11111111, 0
      +                          b11111111,;main.c: 40: 0b00000001, 0b00000000, 0b00000000, 0b10000000,;main.c: 41: 0b000
      +                          00001, 0b00000000, 0b00000000, 0b10000000,;main.c: 42: 0b00000001, 0b00000000, 0b0000000
      +                          0, 0b10000000,;main.c: 43: 0b00000001, 0b00000000, 0b00000000, 0b10000000,;main.c: 44: 0
      +                          b00000001, 0b00000000, 0b00000000, 0b10000000,;main.c: 45: 0b00000001, 0b00000000, 0b000
      +                          00000, 0b10000000,;main.c: 46: 0b00000001, 0b00000000, 0b00000000, 0b10000000,
  1740  0284  3003               	movlw	3
  1741  0285  0020               	movlb	0	; select bank0
  1742  0286  00B1               	movwf	??_loop
  1743  0287  0831               	movf	??_loop,w
  1744  0288  00A7               	movwf	OLED_DrawBitmap@endPage
  1745  0289  01A8               	clrf	OLED_DrawBitmap@startColumn
  1746  028A  307F               	movlw	127
  1747  028B  00B2               	movwf	??_loop+1
  1748  028C  0832               	movf	??_loop+1,w
  1749  028D  00A9               	movwf	OLED_DrawBitmap@endColumn
  1750  028E  3010               	movlw	low (loop@image| (0+32768))
  1751  028F  00AA               	movwf	OLED_DrawBitmap@bitmap
  1752  0290  3080               	movlw	high (loop@image| (0+32768))
  1753  0291  00AB               	movwf	OLED_DrawBitmap@bitmap+1
  1754  0292  3000               	movlw	0
  1755  0293  00AC               	movwf	OLED_DrawBitmap@bitmapSize
  1756  0294  3002               	movlw	2
  1757  0295  00AD               	movwf	OLED_DrawBitmap@bitmapSize+1
  1758  0296  3000               	movlw	0
  1759  0297  3182  22AC  3182   	fcall	_OLED_DrawBitmap
  1760  029A                     l1152:	
  1761                           
  1762                           ;main.c: 173: OLED_InvertDisplay(invert);
  1763  029A  0020               	movlb	0	; select bank0
  1764  029B  0833               	movf	_invert,w
  1765  029C  3183  23EB  3182   	fcall	_OLED_InvertDisplay
  1766  029F                     l1154:	
  1767                           
  1768                           ;main.c: 174: invert++;
  1769  029F  3001               	movlw	1
  1770  02A0  0020               	movlb	0	; select bank0
  1771  02A1  00B1               	movwf	??_loop
  1772  02A2  0831               	movf	??_loop,w
  1773  02A3  07B3               	addwf	_invert,f
  1774  02A4                     l1156:	
  1775                           
  1776                           ;main.c: 175: if(invert > 0x01) invert = 0x00;
  1777  02A4  3002               	movlw	2
  1778  02A5  0233               	subwf	_invert,w
  1779  02A6  1C03               	skipc
  1780  02A7  2AA9               	goto	u321
  1781  02A8  2AAA               	goto	u320
  1782  02A9                     u321:	
  1783  02A9  2AAB               	goto	l28
  1784  02AA                     u320:	
  1785  02AA                     l1158:	
  1786  02AA  01B3               	clrf	_invert
  1787  02AB                     l28:	
  1788  02AB  0008               	return
  1789  02AC                     __end_of_loop:	
  1790                           
  1791                           	psect	text2
  1792  03EB                     __ptext2:	
  1793 ;; *************** function _OLED_InvertDisplay *****************
  1794 ;; Defined at:
  1795 ;;		line 97 in file "OLED.c"
  1796 ;; Parameters:    Size  Location     Type
  1797 ;;  i               1    wreg     unsigned char 
  1798 ;; Auto vars:     Size  Location     Type
  1799 ;;  i               1    5[COMMON] unsigned char 
  1800 ;; Return value:  Size  Location     Type
  1801 ;;                  1    wreg      void 
  1802 ;; Registers used:
  1803 ;;		wreg, status,2, status,0, pclath, cstack
  1804 ;; Tracked objects:
  1805 ;;		On entry : 0/0
  1806 ;;		On exit  : 0/0
  1807 ;;		Unchanged: 0/0
  1808 ;; Data sizes:     COMMON   BANK0   BANK1   BANK2   BANK3   BANK4   BANK5   BANK6   BANK7   BANK8   BANK9  BANK10  BANK1
      +1  BANK12
  1809 ;;      Params:         0       0       0       0       0       0       0       0       0       0       0       0       
      +0       0
  1810 ;;      Locals:         3       0       0       0       0       0       0       0       0       0       0       0       
      +0       0
  1811 ;;      Temps:          0       0       0       0       0       0       0       0       0       0       0       0       
      +0       0
  1812 ;;      Totals:         3       0       0       0       0       0       0       0       0       0       0       0       
      +0       0
  1813 ;;Total ram usage:        3 bytes
  1814 ;; Hardware stack levels used:    1
  1815 ;; Hardware stack levels required when called:    4
  1816 ;; This function calls:
  1817 ;;		_OLED_Command
  1818 ;; This function is called by:
  1819 ;;		_loop
  1820 ;; This function uses a non-reentrant model
  1821 ;;
  1822                           
  1823                           
  1824                           ;psect for function _OLED_InvertDisplay
  1825  03EB                     _OLED_InvertDisplay:	
  1826                           
  1827                           ;incstack = 0
  1828                           ; Regs used in _OLED_InvertDisplay: [wreg+status,2+status,0+pclath+cstack]
  1829                           ;OLED_InvertDisplay@i stored from wreg
  1830  03EB  00F5               	movwf	OLED_InvertDisplay@i
  1831  03EC                     l1082:	
  1832                           
  1833                           ;OLED.c: 98: OLED_Command((i == 0x01) ? 0xA7 : 0xA6);
  1834  03EC  0375               	decf	OLED_InvertDisplay@i,w
  1835  03ED  1903               	btfsc	3,2
  1836  03EE  2BF0               	goto	u291
  1837  03EF  2BF1               	goto	u290
  1838  03F0                     u291:	
  1839  03F0  2BF6               	goto	l1086
  1840  03F1                     u290:	
  1841  03F1                     l1084:	
  1842  03F1  30A6               	movlw	166
  1843  03F2  00F6               	movwf	_OLED_InvertDisplay$147
  1844  03F3  3000               	movlw	0
  1845  03F4  00F7               	movwf	_OLED_InvertDisplay$147+1
  1846  03F5  2BFA               	goto	l1088
  1847  03F6                     l1086:	
  1848  03F6  30A7               	movlw	167
  1849  03F7  00F6               	movwf	_OLED_InvertDisplay$147
  1850  03F8  3000               	movlw	0
  1851  03F9  00F7               	movwf	_OLED_InvertDisplay$147+1
  1852  03FA                     l1088:	
  1853  03FA  0876               	movf	_OLED_InvertDisplay$147,w
  1854  03FB  3183  23D6  3183   	fcall	_OLED_Command
  1855  03FE                     l154:	
  1856  03FE  0008               	return
  1857  03FF                     __end_of_OLED_InvertDisplay:	
  1858                           
  1859                           	psect	text3
  1860  03D6                     __ptext3:	
  1861 ;; *************** function _OLED_Command *****************
  1862 ;; Defined at:
  1863 ;;		line 12 in file "OLED.c"
  1864 ;; Parameters:    Size  Location     Type
  1865 ;;  c               1    wreg     unsigned char 
  1866 ;; Auto vars:     Size  Location     Type
  1867 ;;  c               1    4[COMMON] unsigned char 
  1868 ;; Return value:  Size  Location     Type
  1869 ;;                  1    wreg      void 
  1870 ;; Registers used:
  1871 ;;		wreg, status,2, status,0, pclath, cstack
  1872 ;; Tracked objects:
  1873 ;;		On entry : 0/0
  1874 ;;		On exit  : 0/0
  1875 ;;		Unchanged: 0/0
  1876 ;; Data sizes:     COMMON   BANK0   BANK1   BANK2   BANK3   BANK4   BANK5   BANK6   BANK7   BANK8   BANK9  BANK10  BANK1
      +1  BANK12
  1877 ;;      Params:         0       0       0       0       0       0       0       0       0       0       0       0       
      +0       0
  1878 ;;      Locals:         1       0       0       0       0       0       0       0       0       0       0       0       
      +0       0
  1879 ;;      Temps:          0       0       0       0       0       0       0       0       0       0       0       0       
      +0       0
  1880 ;;      Totals:         1       0       0       0       0       0       0       0       0       0       0       0       
      +0       0
  1881 ;;Total ram usage:        1 bytes
  1882 ;; Hardware stack levels used:    1
  1883 ;; Hardware stack levels required when called:    3
  1884 ;; This function calls:
  1885 ;;		_I2C_Master_Address
  1886 ;;		_I2C_Master_Start
  1887 ;;		_I2C_Master_Stop
  1888 ;;		_I2C_Master_Write
  1889 ;; This function is called by:
  1890 ;;		_OLED_InvertDisplay
  1891 ;; This function uses a non-reentrant model
  1892 ;;
  1893                           
  1894                           
  1895                           ;psect for function _OLED_Command
  1896  03D6                     _OLED_Command:	
  1897                           
  1898                           ;incstack = 0
  1899                           ; Regs used in _OLED_Command: [wreg+status,2+status,0+pclath+cstack]
  1900                           ;OLED_Command@c stored from wreg
  1901  03D6  00F4               	movwf	OLED_Command@c
  1902  03D7                     l1032:	
  1903                           
  1904                           ;OLED.c: 13: I2C_Master_Start();
  1905  03D7  3184  2444  3183   	fcall	_I2C_Master_Start
  1906                           
  1907                           ;OLED.c: 14: I2C_Master_Address(0x3C, 0x00);
  1908  03DA  01F0               	clrf	I2C_Master_Address@mode
  1909  03DB  303C               	movlw	60
  1910  03DC  3183  23FF  3183   	fcall	_I2C_Master_Address
  1911                           
  1912                           ;OLED.c: 15: I2C_Master_Write((uint8_t)0x00);
  1913  03DF  3000               	movlw	0
  1914  03E0  3184  2436  3183   	fcall	_I2C_Master_Write
  1915                           
  1916                           ;OLED.c: 16: I2C_Master_Write(c);
  1917  03E3  0874               	movf	OLED_Command@c,w
  1918  03E4  3184  2436  3183   	fcall	_I2C_Master_Write
  1919                           
  1920                           ;OLED.c: 17: I2C_Master_Stop();
  1921  03E7  3184  243E  3183   	fcall	_I2C_Master_Stop
  1922  03EA                     l128:	
  1923  03EA  0008               	return
  1924  03EB                     __end_of_OLED_Command:	
  1925                           
  1926                           	psect	text4
  1927  02AC                     __ptext4:	
  1928 ;; *************** function _OLED_DrawBitmap *****************
  1929 ;; Defined at:
  1930 ;;		line 101 in file "OLED.c"
  1931 ;; Parameters:    Size  Location     Type
  1932 ;;  startPage       1    wreg     const unsigned char 
  1933 ;;  endPage         1    7[BANK0 ] const unsigned char 
  1934 ;;  startColumn     1    8[BANK0 ] const unsigned char 
  1935 ;;  endColumn       1    9[BANK0 ] const unsigned char 
  1936 ;;  bitmap          2   10[BANK0 ] PTR const unsigned char 
  1937 ;;		 -> loop@image(512), 
  1938 ;;  bitmapSize      2   12[BANK0 ] unsigned int 
  1939 ;; Auto vars:     Size  Location     Type
  1940 ;;  startPage       1   14[BANK0 ] const unsigned char 
  1941 ;;  cnt             2   15[BANK0 ] unsigned int 
  1942 ;; Return value:  Size  Location     Type
  1943 ;;                  1    wreg      void 
  1944 ;; Registers used:
  1945 ;;		wreg, fsr0l, fsr0h, status,2, status,0, pclath, cstack
  1946 ;; Tracked objects:
  1947 ;;		On entry : 0/0
  1948 ;;		On exit  : 0/0
  1949 ;;		Unchanged: 0/0
  1950 ;; Data sizes:     COMMON   BANK0   BANK1   BANK2   BANK3   BANK4   BANK5   BANK6   BANK7   BANK8   BANK9  BANK10  BANK1
      +1  BANK12
  1951 ;;      Params:         0       7       0       0       0       0       0       0       0       0       0       0       
      +0       0
  1952 ;;      Locals:         0       3       0       0       0       0       0       0       0       0       0       0       
      +0       0
  1953 ;;      Temps:          3       0       0       0       0       0       0       0       0       0       0       0       
      +0       0
  1954 ;;      Totals:         3      10       0       0       0       0       0       0       0       0       0       0       
      +0       0
  1955 ;;Total ram usage:       13 bytes
  1956 ;; Hardware stack levels used:    1
  1957 ;; Hardware stack levels required when called:    5
  1958 ;; This function calls:
  1959 ;;		_I2C_Master_Address
  1960 ;;		_I2C_Master_Start
  1961 ;;		_I2C_Master_Stop
  1962 ;;		_I2C_Master_Write
  1963 ;;		_OLED_SetPageAndColumnAddress
  1964 ;; This function is called by:
  1965 ;;		_loop
  1966 ;; This function uses a non-reentrant model
  1967 ;;
  1968                           
  1969                           
  1970                           ;psect for function _OLED_DrawBitmap
  1971  02AC                     _OLED_DrawBitmap:	
  1972                           
  1973                           ;incstack = 0
  1974                           ; Regs used in _OLED_DrawBitmap: [wreg-fsr0h+status,2+status,0+pclath+cstack]
  1975                           ;OLED_DrawBitmap@startPage stored from wreg
  1976  02AC  0020               	movlb	0	; select bank0
  1977  02AD  00AE               	movwf	OLED_DrawBitmap@startPage
  1978  02AE                     l1062:	
  1979                           
  1980                           ;OLED.c: 102: OLED_SetPageAndColumnAddress(startPage, endPage, startColumn, endColumn);
  1981  02AE  0827               	movf	OLED_DrawBitmap@endPage,w
  1982  02AF  00FB               	movwf	??_OLED_DrawBitmap
  1983  02B0  087B               	movf	??_OLED_DrawBitmap,w
  1984  02B1  00F7               	movwf	OLED_SetPageAndColumnAddress@endPage
  1985  02B2  0828               	movf	OLED_DrawBitmap@startColumn,w
  1986  02B3  00FC               	movwf	??_OLED_DrawBitmap+1
  1987  02B4  087C               	movf	??_OLED_DrawBitmap+1,w
  1988  02B5  00F8               	movwf	OLED_SetPageAndColumnAddress@startColumn
  1989  02B6  0829               	movf	OLED_DrawBitmap@endColumn,w
  1990  02B7  00FD               	movwf	??_OLED_DrawBitmap+2
  1991  02B8  087D               	movf	??_OLED_DrawBitmap+2,w
  1992  02B9  00F9               	movwf	OLED_SetPageAndColumnAddress@endColumn
  1993  02BA  082E               	movf	OLED_DrawBitmap@startPage,w
  1994  02BB  3183  234D  3182   	fcall	_OLED_SetPageAndColumnAddress
  1995  02BE                     l1064:	
  1996                           
  1997                           ;OLED.c: 104: I2C_Master_Start();
  1998  02BE  3184  2444  3182   	fcall	_I2C_Master_Start
  1999  02C1                     l1066:	
  2000                           
  2001                           ;OLED.c: 105: I2C_Master_Address(0x3C, 0x00);
  2002  02C1  01F0               	clrf	I2C_Master_Address@mode
  2003  02C2  303C               	movlw	60
  2004  02C3  3183  23FF  3182   	fcall	_I2C_Master_Address
  2005  02C6                     l1068:	
  2006                           
  2007                           ;OLED.c: 106: I2C_Master_Write((uint8_t)0x40);
  2008  02C6  3040               	movlw	64
  2009  02C7  3184  2436  3182   	fcall	_I2C_Master_Write
  2010  02CA                     l1070:	
  2011                           
  2012                           ;OLED.c: 107: for(uint16_t cnt=0; cnt<bitmapSize; cnt++) {
  2013  02CA  0020               	movlb	0	; select bank0
  2014  02CB  01AF               	clrf	OLED_DrawBitmap@cnt
  2015  02CC  01B0               	clrf	OLED_DrawBitmap@cnt+1
  2016  02CD  2ADF               	goto	l1078
  2017  02CE                     l1072:	
  2018                           
  2019                           ;OLED.c: 108: I2C_Master_Write(*bitmap);
  2020  02CE  082A               	movf	OLED_DrawBitmap@bitmap,w
  2021  02CF  0084               	movwf	4
  2022  02D0  082B               	movf	OLED_DrawBitmap@bitmap+1,w
  2023  02D1  0085               	movwf	5
  2024  02D2  0800               	movf	0,w	;code access
  2025  02D3  3184  2436  3182   	fcall	_I2C_Master_Write
  2026  02D6                     l1074:	
  2027                           
  2028                           ;OLED.c: 109: bitmap++;
  2029  02D6  3001               	movlw	1
  2030  02D7  0020               	movlb	0	; select bank0
  2031  02D8  07AA               	addwf	OLED_DrawBitmap@bitmap,f
  2032  02D9  3000               	movlw	0
  2033  02DA  3DAB               	addwfc	OLED_DrawBitmap@bitmap+1,f
  2034  02DB                     l1076:	
  2035  02DB  3001               	movlw	1
  2036  02DC  07AF               	addwf	OLED_DrawBitmap@cnt,f
  2037  02DD  3000               	movlw	0
  2038  02DE  3DB0               	addwfc	OLED_DrawBitmap@cnt+1,f
  2039  02DF                     l1078:	
  2040  02DF  082D               	movf	OLED_DrawBitmap@bitmapSize+1,w
  2041  02E0  0230               	subwf	OLED_DrawBitmap@cnt+1,w
  2042  02E1  1D03               	skipz
  2043  02E2  2AE5               	goto	u285
  2044  02E3  082C               	movf	OLED_DrawBitmap@bitmapSize,w
  2045  02E4  022F               	subwf	OLED_DrawBitmap@cnt,w
  2046  02E5                     u285:	
  2047  02E5  1C03               	skipc
  2048  02E6  2AE8               	goto	u281
  2049  02E7  2AE9               	goto	u280
  2050  02E8                     u281:	
  2051  02E8  2ACE               	goto	l1072
  2052  02E9                     u280:	
  2053  02E9                     l1080:	
  2054                           
  2055                           ;OLED.c: 110: };OLED.c: 111: I2C_Master_Stop();
  2056  02E9  3184  243E  3182   	fcall	_I2C_Master_Stop
  2057  02EC                     l160:	
  2058  02EC  0008               	return
  2059  02ED                     __end_of_OLED_DrawBitmap:	
  2060                           
  2061                           	psect	text5
  2062  0373                     __ptext5:	
  2063 ;; *************** function _init *****************
  2064 ;; Defined at:
  2065 ;;		line 16 in file "init.c"
  2066 ;; Parameters:    Size  Location     Type
  2067 ;;		None
  2068 ;; Auto vars:     Size  Location     Type
  2069 ;;		None
  2070 ;; Return value:  Size  Location     Type
  2071 ;;                  1    wreg      void 
  2072 ;; Registers used:
  2073 ;;		wreg, status,2, status,0, pclath, cstack
  2074 ;; Tracked objects:
  2075 ;;		On entry : 0/0
  2076 ;;		On exit  : 0/0
  2077 ;;		Unchanged: 0/0
  2078 ;; Data sizes:     COMMON   BANK0   BANK1   BANK2   BANK3   BANK4   BANK5   BANK6   BANK7   BANK8   BANK9  BANK10  BANK1
      +1  BANK12
  2079 ;;      Params:         0       0       0       0       0       0       0       0       0       0       0       0       
      +0       0
  2080 ;;      Locals:         0       0       0       0       0       0       0       0       0       0       0       0       
      +0       0
  2081 ;;      Temps:          0       0       0       0       0       0       0       0       0       0       0       0       
      +0       0
  2082 ;;      Totals:         0       0       0       0       0       0       0       0       0       0       0       0       
      +0       0
  2083 ;;Total ram usage:        0 bytes
  2084 ;; Hardware stack levels used:    1
  2085 ;; Hardware stack levels required when called:    3
  2086 ;; This function calls:
  2087 ;;		_I2C_Master_Init
  2088 ;; This function is called by:
  2089 ;;		_main
  2090 ;; This function uses a non-reentrant model
  2091 ;;
  2092                           
  2093                           
  2094                           ;psect for function _init
  2095  0373                     _init:	
  2096  0373                     l1122:	
  2097                           ;incstack = 0
  2098                           ; Regs used in _init: [wreg+status,2+status,0+pclath+cstack]
  2099                           
  2100                           
  2101                           ;init.c: 23: OSCCON = 0b11110000;
  2102  0373  30F0               	movlw	240
  2103  0374  0021               	movlb	1	; select bank1
  2104  0375  0099               	movwf	25	;volatile
  2105  0376                     l1124:	
  2106                           
  2107                           ;init.c: 24: OSCTUNE = 0x00;
  2108  0376  0198               	clrf	24	;volatile
  2109  0377                     l1126:	
  2110                           
  2111                           ;init.c: 36: OPTION_REG = 0b11010111;
  2112  0377  30D7               	movlw	215
  2113  0378  0095               	movwf	21	;volatile
  2114  0379                     l1128:	
  2115                           
  2116                           ;init.c: 44: TRISA = 0b00011111;
  2117  0379  301F               	movlw	31
  2118  037A  008C               	movwf	12	;volatile
  2119  037B                     l1130:	
  2120                           
  2121                           ;init.c: 45: ANSELA = 0b00000000;
  2122  037B  0023               	movlb	3	; select bank3
  2123  037C  018C               	clrf	12	;volatile
  2124  037D                     l1132:	
  2125                           
  2126                           ;init.c: 46: LATA = 0;
  2127  037D  0022               	movlb	2	; select bank2
  2128  037E  018C               	clrf	12	;volatile
  2129  037F                     l1134:	
  2130                           
  2131                           ;init.c: 55: TRISC = 0b00111111;
  2132  037F  303F               	movlw	63
  2133  0380  0021               	movlb	1	; select bank1
  2134  0381  008E               	movwf	14	;volatile
  2135                           
  2136                           ;init.c: 56: ANSELC = 0b00000000;
  2137  0382  0023               	movlb	3	; select bank3
  2138  0383  018E               	clrf	14	;volatile
  2139                           
  2140                           ;init.c: 57: LATC = 0;
  2141  0384  0022               	movlb	2	; select bank2
  2142  0385  018E               	clrf	14	;volatile
  2143  0386                     l1136:	
  2144                           
  2145                           ;init.c: 62: I2C_Master_Init(400000);
  2146  0386  3000               	movlw	0
  2147  0387  0020               	movlb	0	; select bank0
  2148  0388  00A3               	movwf	I2C_Master_Init@c+3
  2149  0389  3006               	movlw	6
  2150  038A  00A2               	movwf	I2C_Master_Init@c+2
  2151  038B  301A               	movlw	26
  2152  038C  00A1               	movwf	I2C_Master_Init@c+1
  2153  038D  3080               	movlw	128
  2154  038E  00A0               	movwf	I2C_Master_Init@c
  2155  038F  3183  231F  3183   	fcall	_I2C_Master_Init
  2156  0392                     l1138:	
  2157                           
  2158                           ;init.c: 71: TMR0IE = 0;
  2159  0392  128B               	bcf	11,5	;volatile
  2160  0393                     l1140:	
  2161                           
  2162                           ;init.c: 72: SSP1IE = 0;
  2163  0393  0021               	movlb	1	; select bank1
  2164  0394  1191               	bcf	17,3	;volatile
  2165  0395                     l1142:	
  2166                           
  2167                           ;init.c: 73: PEIE = 0;
  2168  0395  130B               	bcf	11,6	;volatile
  2169  0396                     l1144:	
  2170                           
  2171                           ;init.c: 74: GIE = 0;
  2172  0396  138B               	bcf	11,7	;volatile
  2173  0397                     l59:	
  2174  0397  0008               	return
  2175  0398                     __end_of_init:	
  2176                           
  2177                           	psect	text6
  2178  031F                     __ptext6:	
  2179 ;; *************** function _I2C_Master_Init *****************
  2180 ;; Defined at:
  2181 ;;		line 12 in file "I2CMaster.c"
  2182 ;; Parameters:    Size  Location     Type
  2183 ;;  c               4    0[BANK0 ] const unsigned long 
  2184 ;; Auto vars:     Size  Location     Type
  2185 ;;		None
  2186 ;; Return value:  Size  Location     Type
  2187 ;;                  1    wreg      void 
  2188 ;; Registers used:
  2189 ;;		wreg, status,2, status,0, pclath, cstack
  2190 ;; Tracked objects:
  2191 ;;		On entry : 0/0
  2192 ;;		On exit  : 0/0
  2193 ;;		Unchanged: 0/0
  2194 ;; Data sizes:     COMMON   BANK0   BANK1   BANK2   BANK3   BANK4   BANK5   BANK6   BANK7   BANK8   BANK9  BANK10  BANK1
      +1  BANK12
  2195 ;;      Params:         0       4       0       0       0       0       0       0       0       0       0       0       
      +0       0
  2196 ;;      Locals:         0       0       0       0       0       0       0       0       0       0       0       0       
      +0       0
  2197 ;;      Temps:          0       4       0       0       0       0       0       0       0       0       0       0       
      +0       0
  2198 ;;      Totals:         0       8       0       0       0       0       0       0       0       0       0       0       
      +0       0
  2199 ;;Total ram usage:        8 bytes
  2200 ;; Hardware stack levels used:    1
  2201 ;; Hardware stack levels required when called:    2
  2202 ;; This function calls:
  2203 ;;		___lldiv
  2204 ;; This function is called by:
  2205 ;;		_init
  2206 ;; This function uses a non-reentrant model
  2207 ;;
  2208                           
  2209                           
  2210                           ;psect for function _I2C_Master_Init
  2211  031F                     _I2C_Master_Init:	
  2212  031F                     l1090:	
  2213                           ;incstack = 0
  2214                           ; Regs used in _I2C_Master_Init: [wreg+status,2+status,0+pclath+cstack]
  2215                           
  2216                           
  2217                           ;I2CMaster.c: 21: SSPCON1 = 0b00101000;
  2218  031F  3028               	movlw	40
  2219  0320  0024               	movlb	4	; select bank4
  2220  0321  0095               	movwf	21	;volatile
  2221  0322                     l1092:	
  2222                           
  2223                           ;I2CMaster.c: 28: SSPCON2 = 0;
  2224  0322  0196               	clrf	22	;volatile
  2225  0323                     l1094:	
  2226                           
  2227                           ;I2CMaster.c: 29: SSPCON3 = 0;
  2228  0323  0197               	clrf	23	;volatile
  2229  0324                     l1096:	
  2230                           
  2231                           ;I2CMaster.c: 30: SSPSTAT = 0;
  2232  0324  0194               	clrf	20	;volatile
  2233  0325                     l1098:	
  2234                           
  2235                           ;I2CMaster.c: 33: SSPADD = (32000000 / (4 * c)) - 1;
  2236  0325  0020               	movlb	0	; select bank0
  2237  0326  0820               	movf	I2C_Master_Init@c,w
  2238  0327  00A4               	movwf	??_I2C_Master_Init
  2239  0328  0821               	movf	I2C_Master_Init@c+1,w
  2240  0329  00A5               	movwf	??_I2C_Master_Init+1
  2241  032A  0822               	movf	I2C_Master_Init@c+2,w
  2242  032B  00A6               	movwf	??_I2C_Master_Init+2
  2243  032C  0823               	movf	I2C_Master_Init@c+3,w
  2244  032D  00A7               	movwf	??_I2C_Master_Init+3
  2245  032E  3002               	movlw	2
  2246  032F                     u305:	
  2247  032F  35A4               	lslf	??_I2C_Master_Init,f
  2248  0330  0DA5               	rlf	??_I2C_Master_Init+1,f
  2249  0331  0DA6               	rlf	??_I2C_Master_Init+2,f
  2250  0332  0DA7               	rlf	??_I2C_Master_Init+3,f
  2251  0333                     u300:	
  2252  0333  0B89               	decfsz	9,f
  2253  0334  2B2F               	goto	u305
  2254  0335  0827               	movf	??_I2C_Master_Init+3,w
  2255  0336  00F3               	movwf	___lldiv@divisor+3
  2256  0337  0826               	movf	??_I2C_Master_Init+2,w
  2257  0338  00F2               	movwf	___lldiv@divisor+2
  2258  0339  0825               	movf	??_I2C_Master_Init+1,w
  2259  033A  00F1               	movwf	___lldiv@divisor+1
  2260  033B  0824               	movf	??_I2C_Master_Init,w
  2261  033C  00F0               	movwf	___lldiv@divisor
  2262  033D  3001               	movlw	1
  2263  033E  00F7               	movwf	___lldiv@dividend+3
  2264  033F  30E8               	movlw	232
  2265  0340  00F6               	movwf	___lldiv@dividend+2
  2266  0341  3048               	movlw	72
  2267  0342  00F5               	movwf	___lldiv@dividend+1
  2268  0343  3000               	movlw	0
  2269  0344  00F4               	movwf	___lldiv@dividend
  2270  0345  3182  2210  3183   	fcall	___lldiv
  2271  0348  0870               	movf	?___lldiv,w
  2272  0349  3EFF               	addlw	255
  2273  034A  0024               	movlb	4	; select bank4
  2274  034B  0092               	movwf	18	;volatile
  2275  034C                     l91:	
  2276  034C  0008               	return
  2277  034D                     __end_of_I2C_Master_Init:	
  2278                           
  2279                           	psect	text7
  2280  0210                     __ptext7:	
  2281 ;; *************** function ___lldiv *****************
  2282 ;; Defined at:
  2283 ;;		line 5 in file "/opt/microchip/xc8/v2.10/pic/sources/c90/common/__lldiv.c"
  2284 ;; Parameters:    Size  Location     Type
  2285 ;;  divisor         4    0[COMMON] unsigned long 
  2286 ;;  dividend        4    4[COMMON] unsigned long 
  2287 ;; Auto vars:     Size  Location     Type
  2288 ;;  quotient        4    9[COMMON] unsigned long 
  2289 ;;  counter         1   13[COMMON] unsigned char 
  2290 ;; Return value:  Size  Location     Type
  2291 ;;                  4    0[COMMON] unsigned long 
  2292 ;; Registers used:
  2293 ;;		wreg, status,2, status,0
  2294 ;; Tracked objects:
  2295 ;;		On entry : 0/0
  2296 ;;		On exit  : 0/0
  2297 ;;		Unchanged: 0/0
  2298 ;; Data sizes:     COMMON   BANK0   BANK1   BANK2   BANK3   BANK4   BANK5   BANK6   BANK7   BANK8   BANK9  BANK10  BANK1
      +1  BANK12
  2299 ;;      Params:         8       0       0       0       0       0       0       0       0       0       0       0       
      +0       0
  2300 ;;      Locals:         5       0       0       0       0       0       0       0       0       0       0       0       
      +0       0
  2301 ;;      Temps:          1       0       0       0       0       0       0       0       0       0       0       0       
      +0       0
  2302 ;;      Totals:        14       0       0       0       0       0       0       0       0       0       0       0       
      +0       0
  2303 ;;Total ram usage:       14 bytes
  2304 ;; Hardware stack levels used:    1
  2305 ;; Hardware stack levels required when called:    1
  2306 ;; This function calls:
  2307 ;;		Nothing
  2308 ;; This function is called by:
  2309 ;;		_I2C_Master_Init
  2310 ;; This function uses a non-reentrant model
  2311 ;;
  2312                           
  2313                           
  2314                           ;psect for function ___lldiv
  2315  0210                     ___lldiv:	
  2316  0210                     l1038:	
  2317                           ;incstack = 0
  2318                           ; Regs used in ___lldiv: [wreg+status,2+status,0]
  2319                           
  2320  0210  3000               	movlw	0
  2321  0211  00FC               	movwf	___lldiv@quotient+3
  2322  0212  3000               	movlw	0
  2323  0213  00FB               	movwf	___lldiv@quotient+2
  2324  0214  3000               	movlw	0
  2325  0215  00FA               	movwf	___lldiv@quotient+1
  2326  0216  3000               	movlw	0
  2327  0217  00F9               	movwf	___lldiv@quotient
  2328  0218  0873               	movf	___lldiv@divisor+3,w
  2329  0219  0472               	iorwf	___lldiv@divisor+2,w
  2330  021A  0471               	iorwf	___lldiv@divisor+1,w
  2331  021B  0470               	iorwf	___lldiv@divisor,w
  2332  021C  1903               	skipnz
  2333  021D  2A1F               	goto	u211
  2334  021E  2A20               	goto	u210
  2335  021F                     u211:	
  2336  021F  2A61               	goto	l1058
  2337  0220                     u210:	
  2338  0220                     l1040:	
  2339  0220  01FD               	clrf	___lldiv@counter
  2340  0221  0AFD               	incf	___lldiv@counter,f
  2341  0222  2A2E               	goto	l1044
  2342  0223                     l1042:	
  2343  0223  3001               	movlw	1
  2344  0224                     u225:	
  2345  0224  35F0               	lslf	___lldiv@divisor,f
  2346  0225  0DF1               	rlf	___lldiv@divisor+1,f
  2347  0226  0DF2               	rlf	___lldiv@divisor+2,f
  2348  0227  0DF3               	rlf	___lldiv@divisor+3,f
  2349  0228  0B89               	decfsz	9,f
  2350  0229  2A24               	goto	u225
  2351  022A  3001               	movlw	1
  2352  022B  00F8               	movwf	??___lldiv
  2353  022C  0878               	movf	??___lldiv,w
  2354  022D  07FD               	addwf	___lldiv@counter,f
  2355  022E                     l1044:	
  2356  022E  1FF3               	btfss	___lldiv@divisor+3,7
  2357  022F  2A31               	goto	u231
  2358  0230  2A32               	goto	u230
  2359  0231                     u231:	
  2360  0231  2A23               	goto	l1042
  2361  0232                     u230:	
  2362  0232                     l1046:	
  2363  0232  3001               	movlw	1
  2364  0233                     u245:	
  2365  0233  35F9               	lslf	___lldiv@quotient,f
  2366  0234  0DFA               	rlf	___lldiv@quotient+1,f
  2367  0235  0DFB               	rlf	___lldiv@quotient+2,f
  2368  0236  0DFC               	rlf	___lldiv@quotient+3,f
  2369  0237  0B89               	decfsz	9,f
  2370  0238  2A33               	goto	u245
  2371  0239                     l1048:	
  2372  0239  0873               	movf	___lldiv@divisor+3,w
  2373  023A  0277               	subwf	___lldiv@dividend+3,w
  2374  023B  1D03               	skipz
  2375  023C  2A47               	goto	u255
  2376  023D  0872               	movf	___lldiv@divisor+2,w
  2377  023E  0276               	subwf	___lldiv@dividend+2,w
  2378  023F  1D03               	skipz
  2379  0240  2A47               	goto	u255
  2380  0241  0871               	movf	___lldiv@divisor+1,w
  2381  0242  0275               	subwf	___lldiv@dividend+1,w
  2382  0243  1D03               	skipz
  2383  0244  2A47               	goto	u255
  2384  0245  0870               	movf	___lldiv@divisor,w
  2385  0246  0274               	subwf	___lldiv@dividend,w
  2386  0247                     u255:	
  2387  0247  1C03               	skipc
  2388  0248  2A4A               	goto	u251
  2389  0249  2A4B               	goto	u250
  2390  024A                     u251:	
  2391  024A  2A54               	goto	l1054
  2392  024B                     u250:	
  2393  024B                     l1050:	
  2394  024B  0870               	movf	___lldiv@divisor,w
  2395  024C  02F4               	subwf	___lldiv@dividend,f
  2396  024D  0871               	movf	___lldiv@divisor+1,w
  2397  024E  3BF5               	subwfb	___lldiv@dividend+1,f
  2398  024F  0872               	movf	___lldiv@divisor+2,w
  2399  0250  3BF6               	subwfb	___lldiv@dividend+2,f
  2400  0251  0873               	movf	___lldiv@divisor+3,w
  2401  0252  3BF7               	subwfb	___lldiv@dividend+3,f
  2402  0253                     l1052:	
  2403  0253  1479               	bsf	___lldiv@quotient,0
  2404  0254                     l1054:	
  2405  0254  3001               	movlw	1
  2406  0255                     u265:	
  2407  0255  36F3               	lsrf	___lldiv@divisor+3,f
  2408  0256  0CF2               	rrf	___lldiv@divisor+2,f
  2409  0257  0CF1               	rrf	___lldiv@divisor+1,f
  2410  0258  0CF0               	rrf	___lldiv@divisor,f
  2411  0259  0B89               	decfsz	9,f
  2412  025A  2A55               	goto	u265
  2413  025B                     l1056:	
  2414  025B  3001               	movlw	1
  2415  025C  02FD               	subwf	___lldiv@counter,f
  2416  025D  1D03               	btfss	3,2
  2417  025E  2A60               	goto	u271
  2418  025F  2A61               	goto	u270
  2419  0260                     u271:	
  2420  0260  2A32               	goto	l1046
  2421  0261                     u270:	
  2422  0261                     l1058:	
  2423  0261  087C               	movf	___lldiv@quotient+3,w
  2424  0262  00F3               	movwf	?___lldiv+3
  2425  0263  087B               	movf	___lldiv@quotient+2,w
  2426  0264  00F2               	movwf	?___lldiv+2
  2427  0265  087A               	movf	___lldiv@quotient+1,w
  2428  0266  00F1               	movwf	?___lldiv+1
  2429  0267  0879               	movf	___lldiv@quotient,w
  2430  0268  00F0               	movwf	?___lldiv
  2431  0269                     l346:	
  2432  0269  0008               	return
  2433  026A                     __end_of___lldiv:	
  2434                           
  2435                           	psect	text8
  2436  040F                     __ptext8:	
  2437 ;; *************** function _OLED_Init *****************
  2438 ;; Defined at:
  2439 ;;		line 52 in file "OLED.c"
  2440 ;; Parameters:    Size  Location     Type
  2441 ;;		None
  2442 ;; Auto vars:     Size  Location     Type
  2443 ;;		None
  2444 ;; Return value:  Size  Location     Type
  2445 ;;                  1    wreg      void 
  2446 ;; Registers used:
  2447 ;;		wreg, fsr0l, fsr0h, status,2, status,0, pclath, cstack
  2448 ;; Tracked objects:
  2449 ;;		On entry : 0/0
  2450 ;;		On exit  : 0/0
  2451 ;;		Unchanged: 0/0
  2452 ;; Data sizes:     COMMON   BANK0   BANK1   BANK2   BANK3   BANK4   BANK5   BANK6   BANK7   BANK8   BANK9  BANK10  BANK1
      +1  BANK12
  2453 ;;      Params:         0       0       0       0       0       0       0       0       0       0       0       0       
      +0       0
  2454 ;;      Locals:         0       0       0       0       0       0       0       0       0       0       0       0       
      +0       0
  2455 ;;      Temps:          1       0       0       0       0       0       0       0       0       0       0       0       
      +0       0
  2456 ;;      Totals:         1       0       0       0       0       0       0       0       0       0       0       0       
      +0       0
  2457 ;;Total ram usage:        1 bytes
  2458 ;; Hardware stack levels used:    1
  2459 ;; Hardware stack levels required when called:    6
  2460 ;; This function calls:
  2461 ;;		_OLED_ClearDisplay
  2462 ;;		_OLED_Commands
  2463 ;; This function is called by:
  2464 ;;		_main
  2465 ;; This function uses a non-reentrant model
  2466 ;;
  2467                           
  2468                           
  2469                           ;psect for function _OLED_Init
  2470  040F                     _OLED_Init:	
  2471  040F                     l1146:	
  2472                           ;incstack = 0
  2473                           ; Regs used in _OLED_Init: [wreg-fsr0h+status,2+status,0+pclath+cstack]
  2474                           
  2475                           
  2476                           ;OLED.c: 53: const uint8_t commands[] = {;OLED.c: 54: 0xAE,;OLED.c: 55: 0xD5,;OLED.c: 56
      +                          : 0x80,;OLED.c: 57: 0xA8,;OLED.c: 58: 0x1F,;OLED.c: 59: 0xD3,;OLED.c: 60: 0x00,;OLED.c: 
      +                          61: 0x40,;OLED.c: 62: 0x8D,;OLED.c: 63: 0x14,;OLED.c: 64: 0x20,;OLED.c: 65: 0x01,;OLED.c
      +                          : 66: 0xA0,;OLED.c: 67: 0xC0,;OLED.c: 68: 0xDA,;OLED.c: 69: 0x02,;OLED.c: 70: 0x81,;OLED
      +                          .c: 71: 0x8F,;OLED.c: 72: 0xD9,;OLED.c: 73: 0xF1,;OLED.c: 74: 0xDB,;OLED.c: 75: 0x20,;OL
      +                          ED.c: 76: 0xA4,;OLED.c: 77: 0xA6,;OLED.c: 78: 0x2E,;OLED.c: 79: 0xAF;OLED.c: 80: };
  2477  040F  30BC               	movlw	low (OLED_Init@commands| (0+32768))
  2478  0410  00F4               	movwf	OLED_Commands@c
  2479  0411  3083               	movlw	high (OLED_Init@commands| (0+32768))
  2480  0412  00F5               	movwf	OLED_Commands@c+1
  2481  0413  301A               	movlw	26
  2482  0414  00FD               	movwf	??_OLED_Init
  2483  0415  087D               	movf	??_OLED_Init,w
  2484  0416  00F6               	movwf	OLED_Commands@n
  2485  0417  3183  2398  3184   	fcall	_OLED_Commands
  2486                           
  2487                           ;OLED.c: 82: OLED_ClearDisplay();
  2488  041A  3182  22ED  3184   	fcall	_OLED_ClearDisplay
  2489  041D                     l142:	
  2490  041D  0008               	return
  2491  041E                     __end_of_OLED_Init:	
  2492                           
  2493                           	psect	text9
  2494  02ED                     __ptext9:	
  2495 ;; *************** function _OLED_ClearDisplay *****************
  2496 ;; Defined at:
  2497 ;;		line 85 in file "OLED.c"
  2498 ;; Parameters:    Size  Location     Type
  2499 ;;		None
  2500 ;; Auto vars:     Size  Location     Type
  2501 ;;  cnt             2    7[BANK0 ] unsigned int 
  2502 ;; Return value:  Size  Location     Type
  2503 ;;                  1    wreg      void 
  2504 ;; Registers used:
  2505 ;;		wreg, fsr0l, fsr0h, status,2, status,0, pclath, cstack
  2506 ;; Tracked objects:
  2507 ;;		On entry : 0/0
  2508 ;;		On exit  : 0/0
  2509 ;;		Unchanged: 0/0
  2510 ;; Data sizes:     COMMON   BANK0   BANK1   BANK2   BANK3   BANK4   BANK5   BANK6   BANK7   BANK8   BANK9  BANK10  BANK1
      +1  BANK12
  2511 ;;      Params:         0       0       0       0       0       0       0       0       0       0       0       0       
      +0       0
  2512 ;;      Locals:         0       2       0       0       0       0       0       0       0       0       0       0       
      +0       0
  2513 ;;      Temps:          2       0       0       0       0       0       0       0       0       0       0       0       
      +0       0
  2514 ;;      Totals:         2       2       0       0       0       0       0       0       0       0       0       0       
      +0       0
  2515 ;;Total ram usage:        4 bytes
  2516 ;; Hardware stack levels used:    1
  2517 ;; Hardware stack levels required when called:    5
  2518 ;; This function calls:
  2519 ;;		_I2C_Master_Address
  2520 ;;		_I2C_Master_Start
  2521 ;;		_I2C_Master_Stop
  2522 ;;		_I2C_Master_Write
  2523 ;;		_OLED_SetPageAndColumnAddress
  2524 ;; This function is called by:
  2525 ;;		_OLED_Init
  2526 ;; This function uses a non-reentrant model
  2527 ;;
  2528                           
  2529                           
  2530                           ;psect for function _OLED_ClearDisplay
  2531  02ED                     _OLED_ClearDisplay:	
  2532  02ED                     l1100:	
  2533                           ;incstack = 0
  2534                           ; Regs used in _OLED_ClearDisplay: [wreg-fsr0h+status,2+status,0+pclath+cstack]
  2535                           
  2536                           
  2537                           ;OLED.c: 86: OLED_SetPageAndColumnAddress(0x00, 0x03, 0x00, 0x7F);
  2538  02ED  3003               	movlw	3
  2539  02EE  00FB               	movwf	??_OLED_ClearDisplay
  2540  02EF  087B               	movf	??_OLED_ClearDisplay,w
  2541  02F0  00F7               	movwf	OLED_SetPageAndColumnAddress@endPage
  2542  02F1  01F8               	clrf	OLED_SetPageAndColumnAddress@startColumn
  2543  02F2  307F               	movlw	127
  2544  02F3  00FC               	movwf	??_OLED_ClearDisplay+1
  2545  02F4  087C               	movf	??_OLED_ClearDisplay+1,w
  2546  02F5  00F9               	movwf	OLED_SetPageAndColumnAddress@endColumn
  2547  02F6  3000               	movlw	0
  2548  02F7  3183  234D  3182   	fcall	_OLED_SetPageAndColumnAddress
  2549  02FA                     l1102:	
  2550                           
  2551                           ;OLED.c: 88: I2C_Master_Start();
  2552  02FA  3184  2444  3182   	fcall	_I2C_Master_Start
  2553  02FD                     l1104:	
  2554                           
  2555                           ;OLED.c: 89: I2C_Master_Address(0x3C, 0x00);
  2556  02FD  01F0               	clrf	I2C_Master_Address@mode
  2557  02FE  303C               	movlw	60
  2558  02FF  3183  23FF  3182   	fcall	_I2C_Master_Address
  2559  0302                     l1106:	
  2560                           
  2561                           ;OLED.c: 90: I2C_Master_Write((uint8_t)0x40);
  2562  0302  3040               	movlw	64
  2563  0303  3184  2436  3182   	fcall	_I2C_Master_Write
  2564  0306                     l1108:	
  2565                           
  2566                           ;OLED.c: 91: for(uint16_t cnt=0; cnt<512; cnt++) {
  2567  0306  0020               	movlb	0	; select bank0
  2568  0307  01A7               	clrf	OLED_ClearDisplay@cnt
  2569  0308  01A8               	clrf	OLED_ClearDisplay@cnt+1
  2570  0309                     l1114:	
  2571                           
  2572                           ;OLED.c: 92: I2C_Master_Write(0X00);
  2573  0309  3000               	movlw	0
  2574  030A  3184  2436  3182   	fcall	_I2C_Master_Write
  2575  030D                     l1116:	
  2576  030D  3001               	movlw	1
  2577  030E  0020               	movlb	0	; select bank0
  2578  030F  07A7               	addwf	OLED_ClearDisplay@cnt,f
  2579  0310  3000               	movlw	0
  2580  0311  3DA8               	addwfc	OLED_ClearDisplay@cnt+1,f
  2581  0312                     l1118:	
  2582  0312  3002               	movlw	2
  2583  0313  0228               	subwf	OLED_ClearDisplay@cnt+1,w
  2584  0314  3000               	movlw	0
  2585  0315  1903               	skipnz
  2586  0316  0227               	subwf	OLED_ClearDisplay@cnt,w
  2587  0317  1C03               	skipc
  2588  0318  2B1A               	goto	u311
  2589  0319  2B1B               	goto	u310
  2590  031A                     u311:	
  2591  031A  2B09               	goto	l1114
  2592  031B                     u310:	
  2593  031B                     l1120:	
  2594                           
  2595                           ;OLED.c: 93: };OLED.c: 94: I2C_Master_Stop();
  2596  031B  3184  243E  3182   	fcall	_I2C_Master_Stop
  2597  031E                     l147:	
  2598  031E  0008               	return
  2599  031F                     __end_of_OLED_ClearDisplay:	
  2600                           
  2601                           	psect	text10
  2602  034D                     __ptext10:	
  2603 ;; *************** function _OLED_SetPageAndColumnAddress *****************
  2604 ;; Defined at:
  2605 ;;		line 31 in file "OLED.c"
  2606 ;; Parameters:    Size  Location     Type
  2607 ;;  startPage       1    wreg     const unsigned char 
  2608 ;;  endPage         1    7[COMMON] const unsigned char 
  2609 ;;  startColumn     1    8[COMMON] const unsigned char 
  2610 ;;  endColumn       1    9[COMMON] const unsigned char 
  2611 ;; Auto vars:     Size  Location     Type
  2612 ;;  startPage       1    6[BANK0 ] const unsigned char 
  2613 ;;  commands        6    0[BANK0 ] unsigned char [6]
  2614 ;; Return value:  Size  Location     Type
  2615 ;;                  1    wreg      void 
  2616 ;; Registers used:
  2617 ;;		wreg, fsr0l, fsr0h, status,2, status,0, pclath, cstack
  2618 ;; Tracked objects:
  2619 ;;		On entry : 0/0
  2620 ;;		On exit  : 0/0
  2621 ;;		Unchanged: 0/0
  2622 ;; Data sizes:     COMMON   BANK0   BANK1   BANK2   BANK3   BANK4   BANK5   BANK6   BANK7   BANK8   BANK9  BANK10  BANK1
      +1  BANK12
  2623 ;;      Params:         3       0       0       0       0       0       0       0       0       0       0       0       
      +0       0
  2624 ;;      Locals:         0       7       0       0       0       0       0       0       0       0       0       0       
      +0       0
  2625 ;;      Temps:          1       0       0       0       0       0       0       0       0       0       0       0       
      +0       0
  2626 ;;      Totals:         4       7       0       0       0       0       0       0       0       0       0       0       
      +0       0
  2627 ;;Total ram usage:       11 bytes
  2628 ;; Hardware stack levels used:    1
  2629 ;; Hardware stack levels required when called:    4
  2630 ;; This function calls:
  2631 ;;		_OLED_Commands
  2632 ;; This function is called by:
  2633 ;;		_OLED_ClearDisplay
  2634 ;;		_OLED_DrawBitmap
  2635 ;; This function uses a non-reentrant model
  2636 ;;
  2637                           
  2638                           
  2639                           ;psect for function _OLED_SetPageAndColumnAddress
  2640  034D                     _OLED_SetPageAndColumnAddress:	
  2641                           
  2642                           ;incstack = 0
  2643                           ; Regs used in _OLED_SetPageAndColumnAddress: [wreg-fsr0h+status,2+status,0+pclath+cstac
      +                          k]
  2644                           ;OLED_SetPageAndColumnAddress@startPage stored from wreg
  2645  034D  0020               	movlb	0	; select bank0
  2646  034E  00A6               	movwf	OLED_SetPageAndColumnAddress@startPage
  2647  034F                     l1034:	
  2648                           
  2649                           ;OLED.c: 42: uint8_t commands[6];;OLED.c: 43: commands[0] = 0x22;
  2650  034F  3022               	movlw	34
  2651  0350  00FA               	movwf	??_OLED_SetPageAndColumnAddress
  2652  0351  087A               	movf	??_OLED_SetPageAndColumnAddress,w
  2653  0352  00A0               	movwf	OLED_SetPageAndColumnAddress@commands
  2654                           
  2655                           ;OLED.c: 44: commands[1] = startPage;
  2656  0353  0826               	movf	OLED_SetPageAndColumnAddress@startPage,w
  2657  0354  00FA               	movwf	??_OLED_SetPageAndColumnAddress
  2658  0355  087A               	movf	??_OLED_SetPageAndColumnAddress,w
  2659  0356  00A1               	movwf	OLED_SetPageAndColumnAddress@commands+1
  2660                           
  2661                           ;OLED.c: 45: commands[2] = endPage;
  2662  0357  0877               	movf	OLED_SetPageAndColumnAddress@endPage,w
  2663  0358  00FA               	movwf	??_OLED_SetPageAndColumnAddress
  2664  0359  087A               	movf	??_OLED_SetPageAndColumnAddress,w
  2665  035A  00A2               	movwf	OLED_SetPageAndColumnAddress@commands+2
  2666                           
  2667                           ;OLED.c: 46: commands[3] = 0x21;
  2668  035B  3021               	movlw	33
  2669  035C  00FA               	movwf	??_OLED_SetPageAndColumnAddress
  2670  035D  087A               	movf	??_OLED_SetPageAndColumnAddress,w
  2671  035E  00A3               	movwf	OLED_SetPageAndColumnAddress@commands+3
  2672                           
  2673                           ;OLED.c: 47: commands[4] = startColumn;
  2674  035F  0878               	movf	OLED_SetPageAndColumnAddress@startColumn,w
  2675  0360  00FA               	movwf	??_OLED_SetPageAndColumnAddress
  2676  0361  087A               	movf	??_OLED_SetPageAndColumnAddress,w
  2677  0362  00A4               	movwf	OLED_SetPageAndColumnAddress@commands+4
  2678                           
  2679                           ;OLED.c: 48: commands[5] = endColumn;
  2680  0363  0879               	movf	OLED_SetPageAndColumnAddress@endColumn,w
  2681  0364  00FA               	movwf	??_OLED_SetPageAndColumnAddress
  2682  0365  087A               	movf	??_OLED_SetPageAndColumnAddress,w
  2683  0366  00A5               	movwf	OLED_SetPageAndColumnAddress@commands+5
  2684  0367                     l1036:	
  2685                           
  2686                           ;OLED.c: 49: OLED_Commands(commands, sizeof(commands));
  2687  0367  3020               	movlw	low OLED_SetPageAndColumnAddress@commands
  2688  0368  00F4               	movwf	OLED_Commands@c
  2689  0369  3000               	movlw	high OLED_SetPageAndColumnAddress@commands
  2690  036A  00F5               	movwf	OLED_Commands@c+1
  2691  036B  3006               	movlw	6
  2692  036C  00FA               	movwf	??_OLED_SetPageAndColumnAddress
  2693  036D  087A               	movf	??_OLED_SetPageAndColumnAddress,w
  2694  036E  00F6               	movwf	OLED_Commands@n
  2695  036F  3183  2398  3183   	fcall	_OLED_Commands
  2696  0372                     l137:	
  2697  0372  0008               	return
  2698  0373                     __end_of_OLED_SetPageAndColumnAddress:	
  2699                           
  2700                           	psect	text11
  2701  0398                     __ptext11:	
  2702 ;; *************** function _OLED_Commands *****************
  2703 ;; Defined at:
  2704 ;;		line 20 in file "OLED.c"
  2705 ;; Parameters:    Size  Location     Type
  2706 ;;  c               2    4[COMMON] PTR const unsigned char 
  2707 ;;		 -> OLED_Init@commands(26), OLED_SetPageAndColumnAddress@commands(6), 
  2708 ;;  n               1    6[COMMON] unsigned char 
  2709 ;; Auto vars:     Size  Location     Type
  2710 ;;		None
  2711 ;; Return value:  Size  Location     Type
  2712 ;;                  1    wreg      void 
  2713 ;; Registers used:
  2714 ;;		wreg, fsr0l, fsr0h, status,2, status,0, pclath, cstack
  2715 ;; Tracked objects:
  2716 ;;		On entry : 0/0
  2717 ;;		On exit  : 0/0
  2718 ;;		Unchanged: 0/0
  2719 ;; Data sizes:     COMMON   BANK0   BANK1   BANK2   BANK3   BANK4   BANK5   BANK6   BANK7   BANK8   BANK9  BANK10  BANK1
      +1  BANK12
  2720 ;;      Params:         3       0       0       0       0       0       0       0       0       0       0       0       
      +0       0
  2721 ;;      Locals:         0       0       0       0       0       0       0       0       0       0       0       0       
      +0       0
  2722 ;;      Temps:          0       0       0       0       0       0       0       0       0       0       0       0       
      +0       0
  2723 ;;      Totals:         3       0       0       0       0       0       0       0       0       0       0       0       
      +0       0
  2724 ;;Total ram usage:        3 bytes
  2725 ;; Hardware stack levels used:    1
  2726 ;; Hardware stack levels required when called:    3
  2727 ;; This function calls:
  2728 ;;		_I2C_Master_Address
  2729 ;;		_I2C_Master_Start
  2730 ;;		_I2C_Master_Stop
  2731 ;;		_I2C_Master_Write
  2732 ;; This function is called by:
  2733 ;;		_OLED_SetPageAndColumnAddress
  2734 ;;		_OLED_Init
  2735 ;; This function uses a non-reentrant model
  2736 ;;
  2737                           
  2738                           
  2739                           ;psect for function _OLED_Commands
  2740  0398                     _OLED_Commands:	
  2741  0398                     l1022:	
  2742                           ;incstack = 0
  2743                           ; Regs used in _OLED_Commands: [wreg-fsr0h+status,2+status,0+pclath+cstack]
  2744                           
  2745                           
  2746                           ;OLED.c: 21: I2C_Master_Start();
  2747  0398  3184  2444  3183   	fcall	_I2C_Master_Start
  2748                           
  2749                           ;OLED.c: 22: I2C_Master_Address(0x3C, 0x00);
  2750  039B  01F0               	clrf	I2C_Master_Address@mode
  2751  039C  303C               	movlw	60
  2752  039D  3183  23FF  3183   	fcall	_I2C_Master_Address
  2753                           
  2754                           ;OLED.c: 23: I2C_Master_Write((uint8_t)0x00);
  2755  03A0  3000               	movlw	0
  2756  03A1  3184  2436  3183   	fcall	_I2C_Master_Write
  2757                           
  2758                           ;OLED.c: 24: while(n--) {
  2759  03A4  2BB1               	goto	l1028
  2760  03A5                     l1024:	
  2761                           
  2762                           ;OLED.c: 25: I2C_Master_Write(*c);
  2763  03A5  0874               	movf	OLED_Commands@c,w
  2764  03A6  0084               	movwf	4
  2765  03A7  0875               	movf	OLED_Commands@c+1,w
  2766  03A8  0085               	movwf	5
  2767  03A9  0800               	movf	0,w	;code access
  2768  03AA  3184  2436  3183   	fcall	_I2C_Master_Write
  2769  03AD                     l1026:	
  2770                           
  2771                           ;OLED.c: 26: c++;
  2772  03AD  3001               	movlw	1
  2773  03AE  07F4               	addwf	OLED_Commands@c,f
  2774  03AF  3000               	movlw	0
  2775  03B0  3DF5               	addwfc	OLED_Commands@c+1,f
  2776  03B1                     l1028:	
  2777  03B1  3001               	movlw	1
  2778  03B2  02F6               	subwf	OLED_Commands@n,f
  2779  03B3  0A76               	incf	OLED_Commands@n,w
  2780  03B4  1D03               	btfss	3,2
  2781  03B5  2BB7               	goto	u201
  2782  03B6  2BB8               	goto	u200
  2783  03B7                     u201:	
  2784  03B7  2BA5               	goto	l1024
  2785  03B8                     u200:	
  2786  03B8                     l1030:	
  2787                           
  2788                           ;OLED.c: 27: };OLED.c: 28: I2C_Master_Stop();
  2789  03B8  3184  243E  3183   	fcall	_I2C_Master_Stop
  2790  03BB                     l134:	
  2791  03BB  0008               	return
  2792  03BC                     __end_of_OLED_Commands:	
  2793                           
  2794                           	psect	text12
  2795  0436                     __ptext12:	
  2796 ;; *************** function _I2C_Master_Write *****************
  2797 ;; Defined at:
  2798 ;;		line 63 in file "I2CMaster.c"
  2799 ;; Parameters:    Size  Location     Type
  2800 ;;  d               1    wreg     unsigned char 
  2801 ;; Auto vars:     Size  Location     Type
  2802 ;;  d               1    0[COMMON] unsigned char 
  2803 ;; Return value:  Size  Location     Type
  2804 ;;                  1    wreg      void 
  2805 ;; Registers used:
  2806 ;;		wreg, status,2, status,0, pclath, cstack
  2807 ;; Tracked objects:
  2808 ;;		On entry : 0/0
  2809 ;;		On exit  : 0/0
  2810 ;;		Unchanged: 0/0
  2811 ;; Data sizes:     COMMON   BANK0   BANK1   BANK2   BANK3   BANK4   BANK5   BANK6   BANK7   BANK8   BANK9  BANK10  BANK1
      +1  BANK12
  2812 ;;      Params:         0       0       0       0       0       0       0       0       0       0       0       0       
      +0       0
  2813 ;;      Locals:         1       0       0       0       0       0       0       0       0       0       0       0       
      +0       0
  2814 ;;      Temps:          0       0       0       0       0       0       0       0       0       0       0       0       
      +0       0
  2815 ;;      Totals:         1       0       0       0       0       0       0       0       0       0       0       0       
      +0       0
  2816 ;;Total ram usage:        1 bytes
  2817 ;; Hardware stack levels used:    1
  2818 ;; Hardware stack levels required when called:    2
  2819 ;; This function calls:
  2820 ;;		_I2C_Master_Wait
  2821 ;; This function is called by:
  2822 ;;		_OLED_Command
  2823 ;;		_OLED_Commands
  2824 ;;		_OLED_ClearDisplay
  2825 ;;		_OLED_DrawBitmap
  2826 ;; This function uses a non-reentrant model
  2827 ;;
  2828                           
  2829                           
  2830                           ;psect for function _I2C_Master_Write
  2831  0436                     _I2C_Master_Write:	
  2832                           
  2833                           ;incstack = 0
  2834                           ; Regs used in _I2C_Master_Write: [wreg+status,2+status,0+pclath+cstack]
  2835                           ;I2C_Master_Write@d stored from wreg
  2836  0436  00F0               	movwf	I2C_Master_Write@d
  2837  0437                     l1018:	
  2838                           
  2839                           ;I2CMaster.c: 64: I2C_Master_Wait();
  2840  0437  3184  242A  3184   	fcall	_I2C_Master_Wait
  2841  043A                     l1020:	
  2842                           
  2843                           ;I2CMaster.c: 65: SSPBUF = d;
  2844  043A  0870               	movf	I2C_Master_Write@d,w
  2845  043B  0024               	movlb	4	; select bank4
  2846  043C  0091               	movwf	17	;volatile
  2847  043D                     l112:	
  2848  043D  0008               	return
  2849  043E                     __end_of_I2C_Master_Write:	
  2850                           
  2851                           	psect	text13
  2852  043E                     __ptext13:	
  2853 ;; *************** function _I2C_Master_Stop *****************
  2854 ;; Defined at:
  2855 ;;		line 50 in file "I2CMaster.c"
  2856 ;; Parameters:    Size  Location     Type
  2857 ;;		None
  2858 ;; Auto vars:     Size  Location     Type
  2859 ;;		None
  2860 ;; Return value:  Size  Location     Type
  2861 ;;                  1    wreg      void 
  2862 ;; Registers used:
  2863 ;;		wreg, status,2, status,0, pclath, cstack
  2864 ;; Tracked objects:
  2865 ;;		On entry : 0/0
  2866 ;;		On exit  : 0/0
  2867 ;;		Unchanged: 0/0
  2868 ;; Data sizes:     COMMON   BANK0   BANK1   BANK2   BANK3   BANK4   BANK5   BANK6   BANK7   BANK8   BANK9  BANK10  BANK1
      +1  BANK12
  2869 ;;      Params:         0       0       0       0       0       0       0       0       0       0       0       0       
      +0       0
  2870 ;;      Locals:         0       0       0       0       0       0       0       0       0       0       0       0       
      +0       0
  2871 ;;      Temps:          0       0       0       0       0       0       0       0       0       0       0       0       
      +0       0
  2872 ;;      Totals:         0       0       0       0       0       0       0       0       0       0       0       0       
      +0       0
  2873 ;;Total ram usage:        0 bytes
  2874 ;; Hardware stack levels used:    1
  2875 ;; Hardware stack levels required when called:    2
  2876 ;; This function calls:
  2877 ;;		_I2C_Master_Wait
  2878 ;; This function is called by:
  2879 ;;		_OLED_Command
  2880 ;;		_OLED_Commands
  2881 ;;		_OLED_ClearDisplay
  2882 ;;		_OLED_DrawBitmap
  2883 ;; This function uses a non-reentrant model
  2884 ;;
  2885                           
  2886                           
  2887                           ;psect for function _I2C_Master_Stop
  2888  043E                     _I2C_Master_Stop:	
  2889  043E                     l1008:	
  2890                           ;incstack = 0
  2891                           ; Regs used in _I2C_Master_Stop: [wreg+status,2+status,0+pclath+cstack]
  2892                           
  2893                           
  2894                           ;I2CMaster.c: 51: I2C_Master_Wait();
  2895  043E  3184  242A  3184   	fcall	_I2C_Master_Wait
  2896  0441                     l1010:	
  2897                           
  2898                           ;I2CMaster.c: 52: PEN = 1;
  2899  0441  0024               	movlb	4	; select bank4
  2900  0442  1516               	bsf	22,2	;volatile
  2901  0443                     l106:	
  2902  0443  0008               	return
  2903  0444                     __end_of_I2C_Master_Stop:	
  2904                           
  2905                           	psect	text14
  2906  0444                     __ptext14:	
  2907 ;; *************** function _I2C_Master_Start *****************
  2908 ;; Defined at:
  2909 ;;		line 40 in file "I2CMaster.c"
  2910 ;; Parameters:    Size  Location     Type
  2911 ;;		None
  2912 ;; Auto vars:     Size  Location     Type
  2913 ;;		None
  2914 ;; Return value:  Size  Location     Type
  2915 ;;                  1    wreg      void 
  2916 ;; Registers used:
  2917 ;;		wreg, status,2, status,0, pclath, cstack
  2918 ;; Tracked objects:
  2919 ;;		On entry : 0/0
  2920 ;;		On exit  : 0/0
  2921 ;;		Unchanged: 0/0
  2922 ;; Data sizes:     COMMON   BANK0   BANK1   BANK2   BANK3   BANK4   BANK5   BANK6   BANK7   BANK8   BANK9  BANK10  BANK1
      +1  BANK12
  2923 ;;      Params:         0       0       0       0       0       0       0       0       0       0       0       0       
      +0       0
  2924 ;;      Locals:         0       0       0       0       0       0       0       0       0       0       0       0       
      +0       0
  2925 ;;      Temps:          0       0       0       0       0       0       0       0       0       0       0       0       
      +0       0
  2926 ;;      Totals:         0       0       0       0       0       0       0       0       0       0       0       0       
      +0       0
  2927 ;;Total ram usage:        0 bytes
  2928 ;; Hardware stack levels used:    1
  2929 ;; Hardware stack levels required when called:    2
  2930 ;; This function calls:
  2931 ;;		_I2C_Master_Wait
  2932 ;; This function is called by:
  2933 ;;		_OLED_Command
  2934 ;;		_OLED_Commands
  2935 ;;		_OLED_ClearDisplay
  2936 ;;		_OLED_DrawBitmap
  2937 ;; This function uses a non-reentrant model
  2938 ;;
  2939                           
  2940                           
  2941                           ;psect for function _I2C_Master_Start
  2942  0444                     _I2C_Master_Start:	
  2943  0444                     l1004:	
  2944                           ;incstack = 0
  2945                           ; Regs used in _I2C_Master_Start: [wreg+status,2+status,0+pclath+cstack]
  2946                           
  2947                           
  2948                           ;I2CMaster.c: 41: I2C_Master_Wait();
  2949  0444  3184  242A  3184   	fcall	_I2C_Master_Wait
  2950  0447                     l1006:	
  2951                           
  2952                           ;I2CMaster.c: 42: SEN = 1;
  2953  0447  0024               	movlb	4	; select bank4
  2954  0448  1416               	bsf	22,0	;volatile
  2955  0449                     l100:	
  2956  0449  0008               	return
  2957  044A                     __end_of_I2C_Master_Start:	
  2958                           
  2959                           	psect	text15
  2960  03FF                     __ptext15:	
  2961 ;; *************** function _I2C_Master_Address *****************
  2962 ;; Defined at:
  2963 ;;		line 55 in file "I2CMaster.c"
  2964 ;; Parameters:    Size  Location     Type
  2965 ;;  address         1    wreg     unsigned char 
  2966 ;;  mode            1    0[COMMON] unsigned char 
  2967 ;; Auto vars:     Size  Location     Type
  2968 ;;  address         1    2[COMMON] unsigned char 
  2969 ;;  addressWithM    1    3[COMMON] unsigned char 
  2970 ;; Return value:  Size  Location     Type
  2971 ;;                  1    wreg      void 
  2972 ;; Registers used:
  2973 ;;		wreg, status,2, status,0, pclath, cstack
  2974 ;; Tracked objects:
  2975 ;;		On entry : 0/0
  2976 ;;		On exit  : 0/0
  2977 ;;		Unchanged: 0/0
  2978 ;; Data sizes:     COMMON   BANK0   BANK1   BANK2   BANK3   BANK4   BANK5   BANK6   BANK7   BANK8   BANK9  BANK10  BANK1
      +1  BANK12
  2979 ;;      Params:         1       0       0       0       0       0       0       0       0       0       0       0       
      +0       0
  2980 ;;      Locals:         2       0       0       0       0       0       0       0       0       0       0       0       
      +0       0
  2981 ;;      Temps:          1       0       0       0       0       0       0       0       0       0       0       0       
      +0       0
  2982 ;;      Totals:         4       0       0       0       0       0       0       0       0       0       0       0       
      +0       0
  2983 ;;Total ram usage:        4 bytes
  2984 ;; Hardware stack levels used:    1
  2985 ;; Hardware stack levels required when called:    2
  2986 ;; This function calls:
  2987 ;;		_I2C_Master_Wait
  2988 ;; This function is called by:
  2989 ;;		_OLED_Command
  2990 ;;		_OLED_Commands
  2991 ;;		_OLED_ClearDisplay
  2992 ;;		_OLED_DrawBitmap
  2993 ;; This function uses a non-reentrant model
  2994 ;;
  2995                           
  2996                           
  2997                           ;psect for function _I2C_Master_Address
  2998  03FF                     _I2C_Master_Address:	
  2999                           
  3000                           ;incstack = 0
  3001                           ; Regs used in _I2C_Master_Address: [wreg+status,2+status,0+pclath+cstack]
  3002                           ;I2C_Master_Address@address stored from wreg
  3003  03FF  00F2               	movwf	I2C_Master_Address@address
  3004  0400                     l1012:	
  3005                           
  3006                           ;I2CMaster.c: 56: uint8_t addressWithMode;;I2CMaster.c: 57: addressWithMode = address <<
      +                           1;
  3007  0400  3572               	lslf	I2C_Master_Address@address,w
  3008  0401  00F1               	movwf	??_I2C_Master_Address
  3009  0402  0871               	movf	??_I2C_Master_Address,w
  3010  0403  00F3               	movwf	I2C_Master_Address@addressWithMode
  3011                           
  3012                           ;I2CMaster.c: 58: addressWithMode += mode;
  3013  0404  0870               	movf	I2C_Master_Address@mode,w
  3014  0405  00F1               	movwf	??_I2C_Master_Address
  3015  0406  0871               	movf	??_I2C_Master_Address,w
  3016  0407  07F3               	addwf	I2C_Master_Address@addressWithMode,f
  3017  0408                     l1014:	
  3018                           
  3019                           ;I2CMaster.c: 59: I2C_Master_Wait();
  3020  0408  3184  242A  3183   	fcall	_I2C_Master_Wait
  3021  040B                     l1016:	
  3022                           
  3023                           ;I2CMaster.c: 60: SSPBUF = addressWithMode;
  3024  040B  0873               	movf	I2C_Master_Address@addressWithMode,w
  3025  040C  0024               	movlb	4	; select bank4
  3026  040D  0091               	movwf	17	;volatile
  3027  040E                     l109:	
  3028  040E  0008               	return
  3029  040F                     __end_of_I2C_Master_Address:	
  3030                           
  3031                           	psect	text16
  3032  042A                     __ptext16:	
  3033 ;; *************** function _I2C_Master_Wait *****************
  3034 ;; Defined at:
  3035 ;;		line 36 in file "I2CMaster.c"
  3036 ;; Parameters:    Size  Location     Type
  3037 ;;		None
  3038 ;; Auto vars:     Size  Location     Type
  3039 ;;		None
  3040 ;; Return value:  Size  Location     Type
  3041 ;;                  1    wreg      void 
  3042 ;; Registers used:
  3043 ;;		wreg, status,2
  3044 ;; Tracked objects:
  3045 ;;		On entry : 0/0
  3046 ;;		On exit  : 0/0
  3047 ;;		Unchanged: 0/0
  3048 ;; Data sizes:     COMMON   BANK0   BANK1   BANK2   BANK3   BANK4   BANK5   BANK6   BANK7   BANK8   BANK9  BANK10  BANK1
      +1  BANK12
  3049 ;;      Params:         0       0       0       0       0       0       0       0       0       0       0       0       
      +0       0
  3050 ;;      Locals:         0       0       0       0       0       0       0       0       0       0       0       0       
      +0       0
  3051 ;;      Temps:          0       0       0       0       0       0       0       0       0       0       0       0       
      +0       0
  3052 ;;      Totals:         0       0       0       0       0       0       0       0       0       0       0       0       
      +0       0
  3053 ;;Total ram usage:        0 bytes
  3054 ;; Hardware stack levels used:    1
  3055 ;; Hardware stack levels required when called:    1
  3056 ;; This function calls:
  3057 ;;		Nothing
  3058 ;; This function is called by:
  3059 ;;		_I2C_Master_Start
  3060 ;;		_I2C_Master_Stop
  3061 ;;		_I2C_Master_Address
  3062 ;;		_I2C_Master_Write
  3063 ;;		_I2C_Master_RepeatedStart
  3064 ;;		_I2C_Master_Read
  3065 ;; This function uses a non-reentrant model
  3066 ;;
  3067                           
  3068                           
  3069                           ;psect for function _I2C_Master_Wait
  3070  042A                     _I2C_Master_Wait:	
  3071  042A                     l1000:	
  3072                           ;incstack = 0
  3073                           ; Regs used in _I2C_Master_Wait: [wreg+status,2]
  3074                           
  3075  042A                     l94:	
  3076                           ;I2CMaster.c: 37: while ((SSPSTAT & 0x04) || (SSPCON2 & 0x1F));
  3077                           
  3078  042A  0024               	movlb	4	; select bank4
  3079  042B  1914               	btfsc	20,2	;volatile
  3080  042C  2C2E               	goto	u181
  3081  042D  2C2F               	goto	u180
  3082  042E                     u181:	
  3083  042E  2C2A               	goto	l94
  3084  042F                     u180:	
  3085  042F                     l1002:	
  3086  042F  0816               	movf	22,w	;volatile
  3087  0430  391F               	andlw	31
  3088  0431  1D03               	btfss	3,2
  3089  0432  2C34               	goto	u191
  3090  0433  2C35               	goto	u190
  3091  0434                     u191:	
  3092  0434  2C2A               	goto	l94
  3093  0435                     u190:	
  3094  0435                     l97:	
  3095  0435  0008               	return
  3096  0436                     __end_of_I2C_Master_Wait:	
  3097                           
  3098                           	psect	intentry
  3099  0004                     __pintentry:	
  3100 ;; *************** function _isr *****************
  3101 ;; Defined at:
  3102 ;;		line 81 in file "init.c"
  3103 ;; Parameters:    Size  Location     Type
  3104 ;;		None
  3105 ;; Auto vars:     Size  Location     Type
  3106 ;;		None
  3107 ;; Return value:  Size  Location     Type
  3108 ;;                  1    wreg      void 
  3109 ;; Registers used:
  3110 ;;		None
  3111 ;; Tracked objects:
  3112 ;;		On entry : 0/0
  3113 ;;		On exit  : 0/0
  3114 ;;		Unchanged: 0/0
  3115 ;; Data sizes:     COMMON   BANK0   BANK1   BANK2   BANK3   BANK4   BANK5   BANK6   BANK7   BANK8   BANK9  BANK10  BANK1
      +1  BANK12
  3116 ;;      Params:         0       0       0       0       0       0       0       0       0       0       0       0       
      +0       0
  3117 ;;      Locals:         0       0       0       0       0       0       0       0       0       0       0       0       
      +0       0
  3118 ;;      Temps:          0       0       0       0       0       0       0       0       0       0       0       0       
      +0       0
  3119 ;;      Totals:         0       0       0       0       0       0       0       0       0       0       0       0       
      +0       0
  3120 ;;Total ram usage:        0 bytes
  3121 ;; Hardware stack levels used:    1
  3122 ;; This function calls:
  3123 ;;		Nothing
  3124 ;; This function is called by:
  3125 ;;		Interrupt level 1
  3126 ;; This function uses a non-reentrant model
  3127 ;;
  3128                           
  3129  0004                     _isr:	
  3130                           
  3131                           ;incstack = 0
  3132  0004  147E               	bsf	int$flags,0	;set compiler interrupt flag (level 1)
  3133                           
  3134                           ; Regs used in _isr: []
  3135  0005  3180               	pagesel	$
  3136  0006                     i1l64:	
  3137  0006  107E               	bcf	int$flags,0	;clear compiler interrupt flag (level 1)
  3138  0007  0009               	retfie
  3139  0008                     __end_of_isr:	
  3140  007E                     btemp	set	126	;btemp
  3141  007E                     int$flags	set	126
  3142  007E                     wtemp0	set	126


Data Sizes:
    Strings     0
    Constant    538
    Data        0
    BSS         1
    Persistent  32
    Stack       0

Auto Spaces:
    Space          Size  Autos    Used
    COMMON           14     14      14
    BANK0            80     19      20
    BANK1            80      0       0
    BANK2            80      0       0
    BANK3            80      0       0
    BANK4            80      0       0
    BANK5            80      0       0
    BANK6            80      0       0
    BANK7            80      0       0
    BANK8            80      0       0
    BANK9            80      0       0
    BANK10           80      0       0
    BANK11           80      0       0
    BANK12           48      0       0

Pointer List with Targets:

    OLED_DrawBitmap@bitmap	PTR const unsigned char  size(2) Largest target is 512
		 -> loop@image(CODE[512]), 

    OLED_Commands@c	PTR const unsigned char  size(2) Largest target is 26
		 -> OLED_Init@commands(CODE[26]), OLED_SetPageAndColumnAddress@commands(BANK0[6]), 


Critical Paths under _main in COMMON

    _main->_OLED_Init
    _loop->_OLED_DrawBitmap
    _OLED_InvertDisplay->_OLED_Command
    _OLED_Command->_I2C_Master_Address
    _OLED_DrawBitmap->_OLED_SetPageAndColumnAddress
    _I2C_Master_Init->___lldiv
    _OLED_Init->_OLED_ClearDisplay
    _OLED_ClearDisplay->_OLED_SetPageAndColumnAddress
    _OLED_SetPageAndColumnAddress->_OLED_Commands
    _OLED_Commands->_I2C_Master_Address

Critical Paths under _isr in COMMON

    None.

Critical Paths under _main in BANK0

    _main->_loop
    _loop->_OLED_DrawBitmap
    _OLED_DrawBitmap->_OLED_SetPageAndColumnAddress
    _init->_I2C_Master_Init
    _OLED_Init->_OLED_ClearDisplay
    _OLED_ClearDisplay->_OLED_SetPageAndColumnAddress

Critical Paths under _isr in BANK0

    None.

Critical Paths under _main in BANK1

    None.

Critical Paths under _isr in BANK1

    None.

Critical Paths under _main in BANK2

    None.

Critical Paths under _isr in BANK2

    None.

Critical Paths under _main in BANK3

    None.

Critical Paths under _isr in BANK3

    None.

Critical Paths under _main in BANK4

    None.

Critical Paths under _isr in BANK4

    None.

Critical Paths under _main in BANK5

    None.

Critical Paths under _isr in BANK5

    None.

Critical Paths under _main in BANK6

    None.

Critical Paths under _isr in BANK6

    None.

Critical Paths under _main in BANK7

    None.

Critical Paths under _isr in BANK7

    None.

Critical Paths under _main in BANK8

    None.

Critical Paths under _isr in BANK8

    None.

Critical Paths under _main in BANK9

    None.

Critical Paths under _isr in BANK9

    None.

Critical Paths under _main in BANK10

    None.

Critical Paths under _isr in BANK10

    None.

Critical Paths under _main in BANK11

    None.

Critical Paths under _isr in BANK11

    None.

Critical Paths under _main in BANK12

    None.

Critical Paths under _isr in BANK12

    None.

Call Graph Tables:

 ---------------------------------------------------------------------------------
 (Depth) Function   	        Calls       Base Space   Used Autos Params    Refs
 ---------------------------------------------------------------------------------
 (0) _main                                                 0     0      0    5850
                          _OLED_Init
                               _init
                               _loop
 ---------------------------------------------------------------------------------
 (1) _loop                                                 2     2      0    2824
                                             17 BANK0      2     2      0
                    _OLED_DrawBitmap
                 _OLED_InvertDisplay
 ---------------------------------------------------------------------------------
 (2) _OLED_InvertDisplay                                   3     3      0     462
                                              5 COMMON     3     3      0
                       _OLED_Command
 ---------------------------------------------------------------------------------
 (3) _OLED_Command                                         1     1      0     416
                                              4 COMMON     1     1      0
                 _I2C_Master_Address
                   _I2C_Master_Start
                    _I2C_Master_Stop
                   _I2C_Master_Write
 ---------------------------------------------------------------------------------
 (2) _OLED_DrawBitmap                                     13     6      7    2362
                                             11 COMMON     3     3      0
                                              7 BANK0     10     3      7
                 _I2C_Master_Address
                   _I2C_Master_Start
                    _I2C_Master_Stop
                   _I2C_Master_Write
       _OLED_SetPageAndColumnAddress
 ---------------------------------------------------------------------------------
 (1) _init                                                 0     0      0     412
                    _I2C_Master_Init
 ---------------------------------------------------------------------------------
 (2) _I2C_Master_Init                                      8     4      4     412
                                              0 BANK0      8     4      4
                            ___lldiv
 ---------------------------------------------------------------------------------
 (3) ___lldiv                                             14     6      8     314
                                              0 COMMON    14     6      8
 ---------------------------------------------------------------------------------
 (1) _OLED_Init                                            1     1      0    2614
                                             13 COMMON     1     1      0
                  _OLED_ClearDisplay
                      _OLED_Commands
 ---------------------------------------------------------------------------------
 (2) _OLED_ClearDisplay                                    4     4      0    1871
                                             11 COMMON     2     2      0
                                              7 BANK0      2     2      0
                 _I2C_Master_Address
                   _I2C_Master_Start
                    _I2C_Master_Stop
                   _I2C_Master_Write
       _OLED_SetPageAndColumnAddress
 ---------------------------------------------------------------------------------
 (3) _OLED_SetPageAndColumnAddress                        11     8      3    1431
                                              7 COMMON     4     1      3
                                              0 BANK0      7     7      0
                      _OLED_Commands
 ---------------------------------------------------------------------------------
 (4) _OLED_Commands                                        3     0      3     743
                                              4 COMMON     3     0      3
                 _I2C_Master_Address
                   _I2C_Master_Start
                    _I2C_Master_Stop
                   _I2C_Master_Write
 ---------------------------------------------------------------------------------
 (4) _I2C_Master_Write                                     1     1      0      22
                                              0 COMMON     1     1      0
                    _I2C_Master_Wait
 ---------------------------------------------------------------------------------
 (4) _I2C_Master_Stop                                      0     0      0       0
                    _I2C_Master_Wait
 ---------------------------------------------------------------------------------
 (4) _I2C_Master_Start                                     0     0      0       0
                    _I2C_Master_Wait
 ---------------------------------------------------------------------------------
 (4) _I2C_Master_Address                                   4     3      1     372
                                              0 COMMON     4     3      1
                    _I2C_Master_Wait
 ---------------------------------------------------------------------------------
 (5) _I2C_Master_Wait                                      0     0      0       0
 ---------------------------------------------------------------------------------
 Estimated maximum stack depth 5
 ---------------------------------------------------------------------------------
 (Depth) Function   	        Calls       Base Space   Used Autos Params    Refs
 ---------------------------------------------------------------------------------
 (7) _isr                                                  0     0      0       0
 ---------------------------------------------------------------------------------
 Estimated maximum stack depth 7
 ---------------------------------------------------------------------------------

 Call Graph Graphs:

 _main (ROOT)
   _OLED_Init
     _OLED_ClearDisplay
       _I2C_Master_Address
         _I2C_Master_Wait
       _I2C_Master_Start
         _I2C_Master_Wait
       _I2C_Master_Stop
         _I2C_Master_Wait
       _I2C_Master_Write
         _I2C_Master_Wait
       _OLED_SetPageAndColumnAddress
         _OLED_Commands
           _I2C_Master_Address
             _I2C_Master_Wait
           _I2C_Master_Start
             _I2C_Master_Wait
           _I2C_Master_Stop
             _I2C_Master_Wait
           _I2C_Master_Write
             _I2C_Master_Wait
     _OLED_Commands
       _I2C_Master_Address
         _I2C_Master_Wait
       _I2C_Master_Start
         _I2C_Master_Wait
       _I2C_Master_Stop
         _I2C_Master_Wait
       _I2C_Master_Write
         _I2C_Master_Wait
   _init
     _I2C_Master_Init
       ___lldiv
   _loop
     _OLED_DrawBitmap
       _I2C_Master_Address
         _I2C_Master_Wait
       _I2C_Master_Start
         _I2C_Master_Wait
       _I2C_Master_Stop
         _I2C_Master_Wait
       _I2C_Master_Write
         _I2C_Master_Wait
       _OLED_SetPageAndColumnAddress
         _OLED_Commands
           _I2C_Master_Address
             _I2C_Master_Wait
           _I2C_Master_Start
             _I2C_Master_Wait
           _I2C_Master_Stop
             _I2C_Master_Wait
           _I2C_Master_Write
             _I2C_Master_Wait
     _OLED_InvertDisplay
       _OLED_Command
         _I2C_Master_Address
           _I2C_Master_Wait
         _I2C_Master_Start
           _I2C_Master_Wait
         _I2C_Master_Stop
           _I2C_Master_Wait
         _I2C_Master_Write
           _I2C_Master_Wait

 _isr (ROOT)

 Address spaces:
Name               Size   Autos  Total    Cost      Usage
BIGRAM             3F0      0       0       0        0.0%
EEDATA             100      0       0       0        0.0%
NULL                 0      0       0       0        0.0%
CODE                 0      0       0       0        0.0%
BITCOMMON            E      0       0       1        0.0%
BITSFR0              0      0       0       1        0.0%
SFR0                 0      0       0       1        0.0%
COMMON               E      E       E       2      100.0%
BITSFR1              0      0       0       2        0.0%
SFR1                 0      0       0       2        0.0%
BITSFR2              0      0       0       3        0.0%
SFR2                 0      0       0       3        0.0%
STACK                0      0       0       3        0.0%
BITBANK0            50      0       0       4        0.0%
BITSFR3              0      0       0       4        0.0%
SFR3                 0      0       0       4        0.0%
BANK0               50     13      14       5       25.0%
BITSFR4              0      0       0       5        0.0%
SFR4                 0      0       0       5        0.0%
BITBANK1            50      0       0       6        0.0%
BITSFR5              0      0       0       6        0.0%
SFR5                 0      0       0       6        0.0%
BANK1               50      0       0       7        0.0%
BITSFR6              0      0       0       7        0.0%
SFR6                 0      0       0       7        0.0%
BITBANK2            50      0       0       8        0.0%
BITSFR7              0      0       0       8        0.0%
SFR7                 0      0       0       8        0.0%
BANK2               50      0       0       9        0.0%
BITSFR8              0      0       0       9        0.0%
SFR8                 0      0       0       9        0.0%
BITBANK3            50      0       0      10        0.0%
BITSFR9              0      0       0      10        0.0%
SFR9                 0      0       0      10        0.0%
BANK3               50      0       0      11        0.0%
BITSFR10             0      0       0      11        0.0%
SFR10                0      0       0      11        0.0%
BITBANK4            50      0       0      12        0.0%
BITSFR11             0      0       0      12        0.0%
SFR11                0      0       0      12        0.0%
BANK4               50      0       0      13        0.0%
BITSFR12             0      0       0      13        0.0%
SFR12                0      0       0      13        0.0%
BITBANK5            50      0       0      14        0.0%
BITSFR13             0      0       0      14        0.0%
SFR13                0      0       0      14        0.0%
BANK5               50      0       0      15        0.0%
BITSFR14             0      0       0      15        0.0%
SFR14                0      0       0      15        0.0%
BITBANK6            50      0       0      16        0.0%
BITSFR15             0      0       0      16        0.0%
SFR15                0      0       0      16        0.0%
BANK6               50      0       0      17        0.0%
BITSFR16             0      0       0      17        0.0%
SFR16                0      0       0      17        0.0%
BITBANK7            50      0       0      18        0.0%
BITSFR17             0      0       0      18        0.0%
SFR17                0      0       0      18        0.0%
BANK7               50      0       0      19        0.0%
BITSFR18             0      0       0      19        0.0%
SFR18                0      0       0      19        0.0%
BITSFR19             0      0       0      20        0.0%
SFR19                0      0       0      20        0.0%
ABS                  0      0      22      20        0.0%
BITBANK8            50      0       0      21        0.0%
BITSFR20             0      0       0      21        0.0%
SFR20                0      0       0      21        0.0%
BANK8               50      0       0      22        0.0%
BITSFR21             0      0       0      22        0.0%
SFR21                0      0       0      22        0.0%
BITBANK9            50      0       0      23        0.0%
BITSFR22             0      0       0      23        0.0%
SFR22                0      0       0      23        0.0%
BANK9               50      0       0      24        0.0%
BITSFR23             0      0       0      24        0.0%
SFR23                0      0       0      24        0.0%
BITBANK10           50      0       0      25        0.0%
BITSFR24             0      0       0      25        0.0%
SFR24                0      0       0      25        0.0%
BANK10              50      0       0      26        0.0%
BITSFR25             0      0       0      26        0.0%
SFR25                0      0       0      26        0.0%
BITBANK11           50      0       0      27        0.0%
BITSFR26             0      0       0      27        0.0%
SFR26                0      0       0      27        0.0%
BANK11              50      0       0      28        0.0%
BITSFR27             0      0       0      28        0.0%
SFR27                0      0       0      28        0.0%
BITBANK12           30      0       0      29        0.0%
BITSFR28             0      0       0      29        0.0%
SFR28                0      0       0      29        0.0%
BANK12              30      0       0      30        0.0%
BITSFR29             0      0       0      30        0.0%
SFR29                0      0       0      30        0.0%
BITSFR30             0      0       0      31        0.0%
SFR30                0      0       0      31        0.0%
DATA                 0      0      22      31        0.0%
BITSFR31             0      0       0      32        0.0%
SFR31                0      0       0      32        0.0%


Microchip Technology PIC Macro Assembler V2.10 build 88905656 
Symbol Table                                                                                   Thu Dec 12 17:03:39 2019

                            __CFG_CP$OFF 0000                                       l28 02AB  
                                     l91 034C                                       l59 0397  
                                     l94 042A                                       l97 0435  
                                    l100 0449                                      l112 043D  
                                    l106 0443                                      l109 040E  
                                    l134 03BB                                      l142 041D  
                                    l160 02EC                                      l128 03EA  
                                    l137 0372                                      l154 03FE  
                                    l147 031E                                      l346 0269  
                                    _GIE 005F                                      u200 03B8  
                                    u201 03B7                                      u210 0220  
                                    u211 021F                                      u300 0333  
                                    u310 031B                                      u230 0232  
                                    u311 031A                                      u231 0231  
                                    u320 02AA                                      u225 0224  
                                    u305 032F                                      u321 02A9  
                                    u250 024B                                      u251 024A  
                                    u180 042F                                      u181 042E  
                                    u245 0233                                      u190 0435  
                                    u270 0261                                      u191 0434  
                                    u271 0260                                      u255 0247  
                                    u280 02E9                                      _PEN 10B2  
                                    u265 0255                                      u281 02E8  
                                    u290 03F1                             __CFG_CPD$OFF 0000  
                                    u291 03F0                                      u285 02E5  
                                    u357 0270                                      u367 027D  
                                    _SEN 10B0                       OLED_DrawBitmap@cnt 002F  
                                    _isr 0004                             __CFG_BORV$LO 0000  
                                    wreg 0009                             __CFG_LVP$OFF 0000  
                                   l1000 042A                                     l1002 042F  
                                   l1010 0441                                     l1012 0400  
                                   l1004 0444                                     l1020 043A  
                                   l1100 02ED                                     l1014 0408  
                                   l1006 0447                                     l1030 03B8  
                                   l1022 0398                                     l1102 02FA  
                                   l1016 040B                                     l1008 043E  
                                   l1024 03A5                                     l1120 031B  
                                   l1104 02FD                                     l1040 0220  
                                   l1032 03D7                                     l1018 0437  
                                   l1026 03AD                                     l1034 034F  
                                   l1114 0309                                     l1106 0302  
                                   l1050 024B                                     l1042 0223  
                                   l1130 037B                                     l1122 0373  
                                   l1028 03B1                                     l1036 0367  
                                   l1116 030D                                     l1108 0306  
                                   l1052 0253                                     l1044 022E  
                                   l1140 0393                                     l1132 037D  
                                   l1124 0376                                     l1118 0312  
                                   l1054 0254                                     l1046 0232  
                                   l1038 0210                                     l1142 0395  
                                   l1134 037F                                     l1126 0377  
                                   l1070 02CA                                     l1062 02AE  
                                   l1150 0284                                     l1056 025B  
                                   l1048 0239                                     l1144 0396  
                                   l1136 0386                                     l1128 0379  
                                   l1080 02E9                                     l1072 02CE  
                                   l1064 02BE                                     l1152 029A  
                                   l1160 041E                                     l1146 040F  
                                   l1058 0261                                     l1090 031F  
                                   l1138 0392                                     l1074 02D6  
                                   l1066 02C1                                     l1082 03EC  
                                   l1154 029F                                     l1162 0421  
                                   l1092 0322                                     l1076 02DB  
                                   l1068 02C6                                     l1084 03F1  
                                   l1156 02A4                                     l1148 026A  
                                   l1164 0424                                     l1094 0323  
                                   l1078 02DF                                     l1086 03F6  
                                   l1158 02AA                                     l1096 0324  
                                   l1088 03FA                                     l1098 0325  
                                   ?_isr 0070                                     _LATA 010C  
                                   _LATC 010E                                     _PEIE 005E  
                                   _RCEN 10B3                                     i1l64 0006  
                                   _RSEN 10B1                             __CFG_WRT$OFF 0000  
                                   _main 041E                                     _init 0373  
                                   _loop 026A                                     fsr0h 0005  
                                   indf0 0000                                     fsr0l 0004  
                                   btemp 007E                                     start 0008  
                          __CFG_IESO$OFF 0000                       __size_of_OLED_Init 000F  
                                  ??_isr 0070                         ?_I2C_Master_Init 0020  
                          __CFG_PLLEN$ON 0000                         ?_I2C_Master_Wait 0070  
                       ?_I2C_Master_Stop 0070                                    ?_main 0070  
                                  _ACKEN 10B4                                    _ACKDT 10B5  
                                  ?_init 0070                                    ?_loop 0070  
                          __CFG_WDTE$OFF 0000                          __end_of___lldiv 026A  
                                  _TRISA 008C                                    _TRISC 008E  
                          __CFG_PWRTE$ON 0000                           __CFG_FCMEN$OFF 0000  
                         __CFG_BOREN$OFF 0000                                    status 0003  
                                  wtemp0 007E                           __CFG_MCLRE$OFF 0000  
                        __initialization 000A                             __end_of_main 042A  
                           __end_of_init 0398                             __end_of_loop 02AC  
                                 ??_main 007E                                   ??_init 007E  
                                 ??_loop 0031                        ?_I2C_Master_Start 0070  
                      ?_I2C_Master_Write 0070                       ??_I2C_Master_Start 0070  
                     ??_I2C_Master_Write 0070                                   _ANSELA 018C  
                                 _ANSELC 018E                        __end_of_OLED_Init 041E  
                                 _OSCCON 0099                            ?_OLED_Command 0070  
                                 _TMR0IE 005D                                   _SSP1IE 048B  
                                 _SSPADD 0212                                   _SSPBUF 0211  
                  OLED_DrawBitmap@bitmap 002A                   __size_of_OLED_Commands 0024  
                         __CFG_STVREN$ON 0000                                ??___lldiv 0078  
                        _OLED_DrawBitmap 02AC                                   _invert 0033  
                         ??_OLED_Command 0074                  __end_of__initialization 000C  
                         __pcstackCOMMON 0070                       _OLED_InvertDisplay 03EB  
   OLED_SetPageAndColumnAddress@commands 0020                      ?_OLED_InvertDisplay 0070  
                      OLED_Init@commands 03BC                            _OLED_Commands 0398  
                             __pbssBANK0 0033               __end_of_I2C_Master_Address 040F  
                   ??_OLED_InvertDisplay 0075                  __end_of_OLED_DrawBitmap 02ED  
                             __pmaintext 041E                               __pintentry 0004  
              __end_ofOLED_Init@commands 03D6        I2C_Master_Address@addressWithMode 0073  
   __end_of_OLED_SetPageAndColumnAddress 0373    __size_of_OLED_SetPageAndColumnAddress 0026  
           _OLED_SetPageAndColumnAddress 034D                           ?_OLED_Commands 0074  
                                _OSCTUNE 0098                                  _SSPCON1 0215  
                                _SSPCON2 0216                                  _SSPCON3 0217  
                                _SSPSTAT 0214                   OLED_DrawBitmap@endPage 0027  
                    OLED_InvertDisplay@i 0075                                  ___lldiv 0210  
                   __end_of_OLED_Command 03EB                                  __ptext1 026A  
                                __ptext2 03EB                                  __ptext3 03D6  
                                __ptext4 02AC                                  __ptext5 0373  
                                __ptext6 031F                                  __ptext7 0210  
                                __ptext8 040F                                  __ptext9 02ED  
                           __size_of_isr 0004                 __size_of_I2C_Master_Init 002E  
               __size_of_I2C_Master_Wait 000C                 __size_of_I2C_Master_Stop 0006  
          ?_OLED_SetPageAndColumnAddress 0077                   _OLED_InvertDisplay$147 0076  
                   end_of_initialization 000C                                _OLED_Init 040F  
              __size_of_I2C_Master_Start 0006                __size_of_I2C_Master_Write 0008  
                        ___lldiv@divisor 0070                          ___lldiv@counter 007D  
                       ?_OLED_DrawBitmap 0027                         I2C_Master_Init@c 0020  
                        ??_OLED_Commands 0077                         __CFG_FOSC$INTOSC 0000  
                             ?_OLED_Init 0070                 OLED_DrawBitmap@endColumn 0029  
                      __end_ofloop@image 0210                      start_initialization 000A  
  OLED_SetPageAndColumnAddress@endColumn 0079                              __end_of_isr 0008  
              I2C_Master_Address@address 0072                        ??_I2C_Master_Init 0024  
         ??_OLED_SetPageAndColumnAddress 007A                        ??_I2C_Master_Wait 0070  
                      ??_I2C_Master_Stop 0070                    __size_of_OLED_Command 0015  
                     _I2C_Master_Address 03FF                 OLED_DrawBitmap@startPage 002E  
                    ?_I2C_Master_Address 0070                                ___latbits 0002  
                          __pcstackBANK0 0020               OLED_DrawBitmap@startColumn 0028  
                           _OLED_Command 03D6    OLED_SetPageAndColumnAddress@startPage 0026  
                   ??_I2C_Master_Address 0071                              ??_OLED_Init 007D  
                       _I2C_Master_Start 0444                OLED_DrawBitmap@bitmapSize 002C  
                       _I2C_Master_Write 0436              __size_of_OLED_InvertDisplay 0014  
                               ?___lldiv 0070                        _OLED_ClearDisplay 02ED  
                     ?_OLED_ClearDisplay 0070                      ??_OLED_ClearDisplay 007B  
                 I2C_Master_Address@mode 0070                           OLED_Commands@c 0074  
                         OLED_Commands@n 0076                __end_of_OLED_ClearDisplay 031F  
OLED_SetPageAndColumnAddress@startColumn 0078                         __size_of___lldiv 005A  
               __size_of_OLED_DrawBitmap 0041                                loop@image 0010  
                        _I2C_Master_Init 031F                          _I2C_Master_Wait 042A  
                        _I2C_Master_Stop 043E                    __end_of_OLED_Commands 03BC  
                               __ptext10 034D                                 __ptext11 0398  
                               __ptext12 0436                                 __ptext13 043E  
                               __ptext14 0444                                 __ptext15 03FF  
                               __ptext16 042A      OLED_SetPageAndColumnAddress@endPage 0077  
                          __size_of_main 000C                            __size_of_init 0025  
                          __size_of_loop 0042                                 int$flags 007E  
                          OLED_Command@c 0074                 __end_of_I2C_Master_Start 044A  
               __end_of_I2C_Master_Write 043E               __size_of_OLED_ClearDisplay 0032  
                               intlevel1 0000                         ___lldiv@dividend 0074  
                      __CFG_CLKOUTEN$OFF 0000                  __end_of_I2C_Master_Init 034D  
                __end_of_I2C_Master_Wait 0436                  __end_of_I2C_Master_Stop 0444  
                          __pstringtext1 0010                            __pstringtext2 03BC  
                             _OPTION_REG 0095                     OLED_ClearDisplay@cnt 0027  
                       ___lldiv@quotient 0079                        I2C_Master_Write@d 0070  
                      ??_OLED_DrawBitmap 007B               __end_of_OLED_InvertDisplay 03FF  
            __size_of_I2C_Master_Address 0010  
